--- !tapi-tbd-v3
archs:                 [ armv7, armv7s, arm64, arm64e ]
platform:              ios
flags:                 [ flat_namespace ]
install-name:          /System/Library/PrivateFrameworks/AudioServerDriverTransports_IOA2.framework/AudioServerDriverTransports_IOA2
current-version:       1
compatibility-version: 1
objc-constraint:       retain_release
exports:
  - archs:                [ armv7, armv7s, arm64, arm64e ]
    symbols:              [ _ASDTIOA2LogType,
                            __ZN4ASDT14IOA2UserClient12DoIsolatedIOEjyjjyy,
                            __ZN4ASDT14IOA2UserClient13CopyDeviceUIDEj,
                            __ZN4ASDT14IOA2UserClient15MapEngineStatusEv,
                            __ZN4ASDT14IOA2UserClient15SetControlValueEjRj,
                            __ZN4ASDT14IOA2UserClient15SetHogModeOwnerEi,
                            __ZN4ASDT14IOA2UserClient15SetStreamActiveEjb,
                            __ZN4ASDT14IOA2UserClient15StopIOWithFlagsEyRy,
                            __ZN4ASDT14IOA2UserClient16GetStreamInfo_IDERKN10applesauce2CF13DictionaryRefERj,
                            __ZN4ASDT14IOA2UserClient16SetupVolumeCurveERKN10applesauce2CF13DictionaryRefERNS_11VolumeCurveE,
                            __ZN4ASDT14IOA2UserClient16StartIOWithFlagsEyRy,
                            __ZN4ASDT14IOA2UserClient17UpdateControlInfoERN10applesauce2CF8ArrayRefEjNS2_13DictionaryRefEb,
                            __ZN4ASDT14IOA2UserClient18BestMatchForFormatERKN10applesauce2CF8ArrayRefERK27AudioStreamBasicDescriptionRS6_,
                            __ZN4ASDT14IOA2UserClient18Fixed64FromFloat64Ed,
                            __ZN4ASDT14IOA2UserClient18Float64FromFixed64Ex,
                            __ZN4ASDT14IOA2UserClient18RefreshControlInfoEj,
                            __ZN4ASDT14IOA2UserClient18RefreshControlListEv,
                            __ZN4ASDT14IOA2UserClient18ReplaceControlInfoERN10applesauce2CF8ArrayRefEjNS2_13DictionaryRefEb,
                            __ZN4ASDT14IOA2UserClient18SetupForIsolatedIOEjyj,
                            __ZN4ASDT14IOA2UserClient18UpdateControlValueERN10applesauce2CF13DictionaryRefENS2_7TypeRefE,
                            __ZN4ASDT14IOA2UserClient19PerformConfigChangeERK20IOAudio2Notification,
                            __ZN4ASDT14IOA2UserClient19ReplaceControlValueERN10applesauce2CF8ArrayRefEjRNS2_13DictionaryRefENS2_7TypeRefE,
                            __ZN4ASDT14IOA2UserClient19ReplaceControlValueEji,
                            __ZN4ASDT14IOA2UserClient20CopyControlInfo_NameERKN10applesauce2CF13DictionaryRefE,
                            __ZN4ASDT14IOA2UserClient20GetControlInfo_ClassERKN10applesauce2CF13DictionaryRefE,
                            __ZN4ASDT14IOA2UserClient20GetControlInfo_ScopeERKN10applesauce2CF13DictionaryRefE,
                            __ZN4ASDT14IOA2UserClient20GetControlInfo_ValueERKN10applesauce2CF13DictionaryRefERj,
                            __ZN4ASDT14IOA2UserClient20MapIOBufferForStreamEj,
                            __ZN4ASDT14IOA2UserClient20MoveBlockControlDataEjjj,
                            __ZN4ASDT14IOA2UserClient20SetClientDescriptionEyd,
                            __ZN4ASDT14IOA2UserClient20SetMultiControlValueEjPKjjPjS3_,
                            __ZN4ASDT14IOA2UserClient20SetNominalSampleRateEd,
                            __ZN4ASDT14IOA2UserClient21GetStreamInfo_LatencyERKN10applesauce2CF13DictionaryRefE,
                            __ZN4ASDT14IOA2UserClient21MapBlockControlBufferERKN10applesauce2CF13DictionaryRefE,
                            __ZN4ASDT14IOA2UserClient21TeardownForIsolatedIOEjy,
                            __ZN4ASDT14IOA2UserClient22GetControlInfo_ElementERKN10applesauce2CF13DictionaryRefE,
                            __ZN4ASDT14IOA2UserClient22GetControlInfo_VariantERKN10applesauce2CF13DictionaryRefE,
                            __ZN4ASDT14IOA2UserClient22GetDataExchangeBlockIDERKN10applesauce2CF13DictionaryRefERj,
                            __ZN4ASDT14IOA2UserClient22GetUpdatedControlValueEN10applesauce2CF13DictionaryRefEiRNS2_7TypeRefERb,
                            __ZN4ASDT14IOA2UserClient22SetStreamCurrentFormatEjRK27AudioStreamBasicDescription,
                            __ZN4ASDT14IOA2UserClient24GetControlInfo_BaseClassERKN10applesauce2CF13DictionaryRefE,
                            __ZN4ASDT14IOA2UserClient24ReplaceMultiControlValueEjPKjj,
                            __ZN4ASDT14IOA2UserClient25CopyControlDictionaryByIDERKN10applesauce2CF8ArrayRefEjRj,
                            __ZN4ASDT14IOA2UserClient25CopyControlDictionaryByIDEj,
                            __ZN4ASDT14IOA2UserClient25GetControlInfo_IsReadOnlyERKN10applesauce2CF13DictionaryRefE,
                            __ZN4ASDT14IOA2UserClient25MoveDataExchangeBlockDataEjbj,
                            __ZN4ASDT14IOA2UserClient26GetStreamInfo_TerminalTypeERKN10applesauce2CF13DictionaryRefE,
                            __ZN4ASDT14IOA2UserClient26MapDataExchangeBlockBufferEj,
                            __ZN4ASDT14IOA2UserClient27ConstructASBDFromDictionaryERKN10applesauce2CF13DictionaryRefER27AudioStreamBasicDescription,
                            __ZN4ASDT14IOA2UserClient27ConstructASRDFromDictionaryERKN10applesauce2CF13DictionaryRefER28AudioStreamRangedDescription,
                            __ZN4ASDT14IOA2UserClient27ConstructDictionaryFromASBDERK27AudioStreamBasicDescription,
                            __ZN4ASDT14IOA2UserClient27GetStreamInfo_CurrentFormatERKN10applesauce2CF13DictionaryRefER27AudioStreamBasicDescription,
                            __ZN4ASDT14IOA2UserClient27GetUpdatedMultiControlValueEN10applesauce2CF13DictionaryRefEPKjjRNS2_7TypeRefERb,
                            __ZN4ASDT14IOA2UserClient28CopyControlDictionaryByIndexERKN10applesauce2CF8ArrayRefEj,
                            __ZN4ASDT14IOA2UserClient28CopyControlDictionaryByIndexEj,
                            __ZN4ASDT14IOA2UserClient28GetStreamInfo_UsesIsolatedIOERKN10applesauce2CF13DictionaryRefE,
                            __ZN4ASDT14IOA2UserClient29CopyLevelControlInfo_RangeMapERKN10applesauce2CF13DictionaryRefE,
                            __ZN4ASDT14IOA2UserClient29GetControlDictionaryIndexByIDERKN10applesauce2CF8ArrayRefEjRj,
                            __ZN4ASDT14IOA2UserClient29GetStreamInfo_StartingChannelERKN10applesauce2CF13DictionaryRefE,
                            __ZN4ASDT14IOA2UserClient31CopyBlockControlInfo_DescriptorERKN10applesauce2CF13DictionaryRefE,
                            __ZN4ASDT14IOA2UserClient31CopyStreamInfo_AvailableFormatsERKN10applesauce2CF13DictionaryRefE,
                            __ZN4ASDT14IOA2UserClient33CopyControlInfo_PropertySelectorsERKN10applesauce2CF13DictionaryRefE,
                            __ZN4ASDT14IOA2UserClient33GetSliderControlInfo_MaximumValueERKN10applesauce2CF13DictionaryRefERj,
                            __ZN4ASDT14IOA2UserClient33GetSliderControlInfo_MinimumValueERKN10applesauce2CF13DictionaryRefERj,
                            __ZN4ASDT14IOA2UserClient33GetStereoPanControlInfo_LeftValueERKN10applesauce2CF13DictionaryRefERj,
                            __ZN4ASDT14IOA2UserClient34GetStereoPanControlInfo_RightValueERKN10applesauce2CF13DictionaryRefERj,
                            __ZN4ASDT14IOA2UserClient35CopySelectorControlInfo_SelectorMapERKN10applesauce2CF13DictionaryRefE,
                            __ZN4ASDT14IOA2UserClient35GetStereoPanControlInfo_CenterValueERKN10applesauce2CF13DictionaryRefERj,
                            __ZN4ASDT14IOA2UserClient35GetStereoPanControlInfo_LeftChannelERKN10applesauce2CF13DictionaryRefERj,
                            __ZN4ASDT14IOA2UserClient36GetLevelControlInfo_TransferFunctionERKN10applesauce2CF13DictionaryRefE,
                            __ZN4ASDT14IOA2UserClient36GetStereoPanControlInfo_RightChannelERKN10applesauce2CF13DictionaryRefERj,
                            __ZN4ASDT14IOA2UserClient42CopySelectorControlInfo_MultiSelectorValueERKN10applesauce2CF13DictionaryRefE,
                            __ZN4ASDT14IOA2UserClient4DoIOEbjyy,
                            __ZN4ASDT14IOA2UserClient6StopIOEv,
                            __ZN4ASDT14IOA2UserClient7StartIOEv,
                            __ZN4ASDT14IOA2UserClient9IsPrivateEj,
                            __ZN4ASDT14IOA2UserClientC1ERKN10applesauce2CF13DictionaryRefE,
                            __ZN4ASDT14IOA2UserClientC1Ejj,
                            __ZN4ASDT14IOA2UserClientC2ERKN10applesauce2CF13DictionaryRefE,
                            __ZN4ASDT14IOA2UserClientC2Ejj,
                            __ZNK4ASDT14IOA2UserClient10GetLatencyEb,
                            __ZNK4ASDT14IOA2UserClient13CopyDeviceUIDEv,
                            __ZNK4ASDT14IOA2UserClient14CopyDeviceNameEv,
                            __ZNK4ASDT14IOA2UserClient14CopyStreamListEb,
                            __ZNK4ASDT14IOA2UserClient14GetClockDomainEv,
                            __ZNK4ASDT14IOA2UserClient15CopyControlListEv,
                            __ZNK4ASDT14IOA2UserClient15CopyHeadsetInfoEv,
                            __ZNK4ASDT14IOA2UserClient15GetHogModeOwnerEv,
                            __ZNK4ASDT14IOA2UserClient15GetSafetyOffsetEb,
                            __ZNK4ASDT14IOA2UserClient16GetNumberStreamsEb,
                            __ZNK4ASDT14IOA2UserClient16GetTransportTypeEv,
                            __ZNK4ASDT14IOA2UserClient17GetRingBufferSizeEv,
                            __ZNK4ASDT14IOA2UserClient17WantsDoIOTrapCallEb,
                            __ZNK4ASDT14IOA2UserClient18SupportsPreWarmingEv,
                            __ZNK4ASDT14IOA2UserClient20GetNominalSampleRateEv,
                            __ZNK4ASDT14IOA2UserClient22CopyCustomPropertyInfoEv,
                            __ZNK4ASDT14IOA2UserClient22CopyDeviceManufacturerEv,
                            __ZNK4ASDT14IOA2UserClient24CopyDefaultChannelLayoutEb,
                            __ZNK4ASDT14IOA2UserClient24CopyStreamDictionaryByIDEj,
                            __ZNK4ASDT14IOA2UserClient25CopyDataExchangeBlockListEv,
                            __ZNK4ASDT14IOA2UserClient25SupportsClientDescriptionEv,
                            __ZNK4ASDT14IOA2UserClient27CopyStreamDictionaryByIndexEbj,
                            __ZNK4ASDT14IOA2UserClient27GetNumberDataExchangeBlocksEv,
                            __ZNK4ASDT14IOA2UserClient28CopyDefaultChannelLayoutDataEb,
                            __ZNK4ASDT14IOA2UserClient28SupportsInputStreamInjectionEv,
                            __ZNK4ASDT14IOA2UserClient35CopyDataExchangeBlockDictionaryByIDEj,
                            __ZNK4ASDT14IOA2UserClient38CopyDataExchangeBlockDictionaryByIndexEj,
                            __ZNK4ASDT14IOA2UserClient9IsRunningEv,
                            _kASDTIOA2ConfigKeyExclavesInjectionBufferName,
                            _kASDTIOA2ConfigKeyExclavesInputBufferName,
                            _kASDTIOA2ConfigKeyExclavesOutputBufferName,
                            _kASDTIOA2ConfigKeyIsolatedInputUseCaseID,
                            _kASDTIOA2ConfigKeyIsolatedOutputUseCaseID,
                            _kASDTIOA2ControlPropertySelectorInfoKeyDataType,
                            _kASDTIOA2ControlPropertySelectorInfoKeySelector,
                            _kASDTIOA2DeviceKeyDeviceUID,
                            _kASDTIOA2DeviceKeyIsPrivate,
                            _kASDTIOA2HeadsetInfoPropertyAddress ]
    objc-classes:         [ ASDTIOA2BlockControl, ASDTIOA2BooleanControl,
                            ASDTIOA2Control, ASDTIOA2DefaultChannelLayout,
                            ASDTIOA2Device, ASDTIOA2DeviceFactory,
                            ASDTIOA2HeadsetInfoProperty, ASDTIOA2InjectionStream,
                            ASDTIOA2JackControl, ASDTIOA2LevelControl,
                            ASDTIOA2MuteControl, ASDTIOA2OffsetStream,
                            ASDTIOA2PhantomPowerControl,
                            ASDTIOA2PhaseInvertControl, ASDTIOA2SelectorControl,
                            ASDTIOA2ServiceManager, ASDTIOA2SliderControl,
                            ASDTIOA2Stream ]
    objc-ivars:           [ ASDTIOA2BlockControl._blockMap,
                            ASDTIOA2BlockControl._ioa2Device,
                            ASDTIOA2BlockControl._lock,
                            ASDTIOA2BlockControl._settable,
                            ASDTIOA2BlockControl._userClientID,
                            ASDTIOA2BlockControl.marked,
                            ASDTIOA2BlockControl.properties,
                            ASDTIOA2BooleanControl._ioa2Device,
                            ASDTIOA2BooleanControl._lock,
                            ASDTIOA2BooleanControl._setterBlock,
                            ASDTIOA2BooleanControl._userClientID,
                            ASDTIOA2BooleanControl.marked,
                            ASDTIOA2BooleanControl.properties,
                            ASDTIOA2Device._configChangeCV,
                            ASDTIOA2Device._configChangeMutex,
                            ASDTIOA2Device._currentSeed,
                            ASDTIOA2Device._customPropertySelectorMap,
                            ASDTIOA2Device._delayedStopIO,
                            ASDTIOA2Device._engineStatus,
                            ASDTIOA2Device._exclavesInjectionBufferName,
                            ASDTIOA2Device._exclavesInputBufferName,
                            ASDTIOA2Device._exclavesOutputBufferName,
                            ASDTIOA2Device._exclavesStatusTracker,
                            ASDTIOA2Device._exclavesStatusTrackerOnce,
                            ASDTIOA2Device._injectionStream,
                            ASDTIOA2Device._injectionStreamEnableProperty,
                            ASDTIOA2Device._ioRequestCV,
                            ASDTIOA2Device._ioRequestCount,
                            ASDTIOA2Device._ioRequestMutex,
                            ASDTIOA2Device._isolatedInputUseCaseID,
                            ASDTIOA2Device._isolatedOutputUseCaseID,
                            ASDTIOA2Device._nonSecureInputEnableProperty,
                            ASDTIOA2Device._notifiedIORunning,
                            ASDTIOA2Device._shouldStopIO,
                            ASDTIOA2Device._stopIOQueue,
                            ASDTIOA2Device._ucDevice,
                            ASDTIOA2Device._ucDeviceNotificationQueue,
                            ASDTIOA2Device._ucDeviceStarted,
                            ASDTIOA2Device._ucIOLock,
                            ASDTIOA2HeadsetInfoProperty._device,
                            ASDTIOA2InjectionStream._inputStream,
                            ASDTIOA2InjectionStream._userClientID,
                            ASDTIOA2InjectionStream.marked,
                            ASDTIOA2LevelControl._ioa2Device,
                            ASDTIOA2LevelControl._lock,
                            ASDTIOA2LevelControl._rawValue,
                            ASDTIOA2LevelControl._userClientID,
                            ASDTIOA2LevelControl._volumeCurve,
                            ASDTIOA2LevelControl.marked,
                            ASDTIOA2LevelControl.properties,
                            ASDTIOA2OffsetStream._sampleTimeOffset,
                            ASDTIOA2SelectorControl._ioa2Device,
                            ASDTIOA2SelectorControl._lock,
                            ASDTIOA2SelectorControl._multiSelector,
                            ASDTIOA2SelectorControl._userClientID,
                            ASDTIOA2SelectorControl.marked,
                            ASDTIOA2SelectorControl.properties,
                            ASDTIOA2SliderControl._ioa2Device,
                            ASDTIOA2SliderControl._lock,
                            ASDTIOA2SliderControl._userClientID,
                            ASDTIOA2SliderControl.marked,
                            ASDTIOA2SliderControl.properties,
                            ASDTIOA2Stream._injectionStream,
                            ASDTIOA2Stream._ioBufferByteSize,
                            ASDTIOA2Stream._ioBufferMap,
                            ASDTIOA2Stream._isolatedIOFormatMap,
                            ASDTIOA2Stream._userClientID,
                            ASDTIOA2Stream._usesIsolatedIO,
                            ASDTIOA2Stream.marked ]
...
