--- !tapi-tbd-v3
archs:                 [ armv7, armv7s, arm64, arm64e ]
platform:              ios
flags:                 [ flat_namespace ]
install-name:          /System/Library/PrivateFrameworks/RoyaCaptureCore.framework/RoyaCaptureCore
current-version:       1
compatibility-version: 1
objc-constraint:       retain_release
exports:
  - archs:                [ armv7, armv7s, arm64, arm64e ]
    symbols:              [ _CurrentRoyaFormatVersionNumber,
                            _CurrentRoyaFormatVersionString,
                            _RYFARAnchorClassNameARAppleDeviceAnchor,
                            _RYFARAnchorClassNameARBodyAnchor,
                            _RYFARAnchorClassNameARCameraAnchor,
                            _RYFARAnchorClassNameAREyeAnchor,
                            _RYFARAnchorClassNameARFaceAnchor,
                            _RYFARAnchorClassNameARHandAnchor,
                            _RYFARAnchorClassNameARImageAnchor,
                            _RYFARAnchorClassNameARMeshAnchor,
                            _RYFARAnchorClassNameARPlaneAnchor,
                            _RYFRealityTrackDataIdentifierARAnchorHand,
                            _RYFRealityTrackDataIdentifierARAnchorPlane,
                            _RYFRealityTrackDataIdentifierARAnchorUUID,
                            _RYFRealityTrackDataIdentifierARDataAnchorHand,
                            _RYFRealityTrackDataIdentifierARDataAnchorHand_V2_1,
                            _RYFRealityTrackDataIdentifierARDataAnchorHand_V2_2,
                            _RYFRealityTrackDataIdentifierARDataAnchorPlane,
                            _RYFRealityTrackDataIdentifierARDataAnchorPlane_V2_1,
                            _RYFRealityTrackDataIdentifierARDataAnchorPlane_V2_2,
                            _RYFRealityTrackDataIdentifierARDataAnchorUUID,
                            _RYFRealityTrackDataIdentifierARDataAnchorUUID_V2_1,
                            _RYFRealityTrackDataIdentifierARDataAnchorUUID_V2_2,
                            _RYFRealityTrackDataIdentifierARDataPoseGazeCenter,
                            _RYFRealityTrackDataIdentifierARDataPoseGazeCenter_V2_1,
                            _RYFRealityTrackDataIdentifierARDataPoseGazeCenter_V2_2,
                            _RYFRealityTrackDataIdentifierARDataPoseGazeLeft,
                            _RYFRealityTrackDataIdentifierARDataPoseGazeLeft_V2_1,
                            _RYFRealityTrackDataIdentifierARDataPoseGazeLeft_V2_2,
                            _RYFRealityTrackDataIdentifierARDataPoseGazeRight,
                            _RYFRealityTrackDataIdentifierARDataPoseGazeRight_V2_1,
                            _RYFRealityTrackDataIdentifierARDataPoseGazeRight_V2_2,
                            _RYFRealityTrackDataIdentifierARDataPoseHead,
                            _RYFRealityTrackDataIdentifierARDataPoseHead_V2_1,
                            _RYFRealityTrackDataIdentifierARDataPoseHead_V2_2,
                            _RYFRealityTrackDataIdentifierARPoseCenterGaze,
                            _RYFRealityTrackDataIdentifierARPoseHead,
                            _RYFRealityTrackDataIdentifierARPoseLeftGaze,
                            _RYFRealityTrackDataIdentifierARPoseRightGaze,
                            _RYFRealityTrackDataIdentifierAssetsAdd,
                            _RYFRealityTrackDataIdentifierAssetsRemove,
                            _RYFRealityTrackDataIdentifierMetadataAssetDependenciesLookup,
                            _RYFRealityTrackDataIdentifierMetadataAssetFilePathLookup,
                            _RYFRealityTrackDataIdentifierMetadataAssetLoadDescriptorLookup,
                            _RYFRealityTrackDataIdentifierMetadataSceneComponents,
                            _RYFRealityTrackDataIdentifierMetadataSceneMeshAssetURLLookup,
                            _RYFRealityTrackDataIdentifierMetadataSceneSnapshots,
                            _RYFRealityTrackDataIdentifierREAssetsAdd,
                            _RYFRealityTrackDataIdentifierREAssetsAdd_V2_1,
                            _RYFRealityTrackDataIdentifierREAssetsAdd_V2_2,
                            _RYFRealityTrackDataIdentifierREAssetsRemove,
                            _RYFRealityTrackDataIdentifierREAssetsRemove_V2_1,
                            _RYFRealityTrackDataIdentifierREAssetsRemove_V2_2,
                            _RYFRealityTrackDataIdentifierREMetadataAssetDependenciesLookup,
                            _RYFRealityTrackDataIdentifierREMetadataAssetDependenciesLookup_V2_1,
                            _RYFRealityTrackDataIdentifierREMetadataAssetDependenciesLookup_V2_2,
                            _RYFRealityTrackDataIdentifierREMetadataAssetFilePathLookup,
                            _RYFRealityTrackDataIdentifierREMetadataAssetFilePathLookup_V2_1,
                            _RYFRealityTrackDataIdentifierREMetadataAssetFilePathLookup_V2_2,
                            _RYFRealityTrackDataIdentifierREMetadataAssetLoadDescriptorLookup,
                            _RYFRealityTrackDataIdentifierREMetadataAssetLoadDescriptorLookup_V2_1,
                            _RYFRealityTrackDataIdentifierREMetadataAssetLoadDescriptorLookup_V2_2,
                            _RYFRealityTrackDataIdentifierREMetadataSceneComponents,
                            _RYFRealityTrackDataIdentifierREMetadataSceneComponents_V2_1,
                            _RYFRealityTrackDataIdentifierREMetadataSceneComponents_V2_2,
                            _RYFRealityTrackDataIdentifierREMetadataSceneMeshAssetURLLookup,
                            _RYFRealityTrackDataIdentifierREMetadataSceneMeshAssetURLLookup_V2_1,
                            _RYFRealityTrackDataIdentifierREMetadataSceneMeshAssetURLLookup_V2_2,
                            _RYFRealityTrackDataIdentifierREMetadataSceneSnapshots,
                            _RYFRealityTrackDataIdentifierREMetadataSceneSnapshots_V2_1,
                            _RYFRealityTrackDataIdentifierREMetadataSceneSnapshots_V2_2,
                            _RYFRealityTrackDataIdentifierRESceneFrameDataDelta,
                            _RYFRealityTrackDataIdentifierRESceneFrameDataDelta_V2_1,
                            _RYFRealityTrackDataIdentifierRESceneFrameDataDelta_V2_2,
                            _RYFRealityTrackDataIdentifierRESceneFrameDataSnapshot,
                            _RYFRealityTrackDataIdentifierRESceneFrameDataSnapshot_V2_1,
                            _RYFRealityTrackDataIdentifierRESceneFrameDataSnapshot_V2_2,
                            _RYFRealityTrackDataIdentifierRESceneFrameTimestamp,
                            _RYFRealityTrackDataIdentifierRESceneFrameTimestamp_V2_1,
                            _RYFRealityTrackDataIdentifierRESceneFrameTimestamp_V2_2,
                            _RYFRealityTrackDataIdentifierRESceneFrameType,
                            _RYFRealityTrackDataIdentifierRESceneFrameType_V2_1,
                            _RYFRealityTrackDataIdentifierRESceneFrameType_V2_2,
                            _RYFRealityTrackDataIdentifierRESceneKeyFrameType,
                            _RYFRealityTrackDataIdentifierRESceneKeyFrameType_V2_1,
                            _RYFRealityTrackDataIdentifierRESceneKeyFrameType_V2_2,
                            _RYFRealityTrackDataIdentifierSceneFrameDataDelta,
                            _RYFRealityTrackDataIdentifierSceneFrameDataSnapshot,
                            _RYFRealityTrackDataIdentifierSceneFrameTimestamp,
                            _RYFRealityTrackDataIdentifierSceneFrameType,
                            _RYFRealityTrackDataIdentifierSceneKeyFrameType,
                            _RYFTrackNameARData, _RYFTrackNameARDataBodyAnchors,
                            _RYFTrackNameARDataBodyAnchors_V2_2,
                            _RYFTrackNameARDataCameraAnchors,
                            _RYFTrackNameARDataCameraAnchors_V2_2,
                            _RYFTrackNameARDataClientAppleDeviceAnchors,
                            _RYFTrackNameARDataClientAppleDeviceAnchors_V2_3,
                            _RYFTrackNameARDataClientImageAnchors,
                            _RYFTrackNameARDataClientImageAnchors_V2_3,
                            _RYFTrackNameARDataDeviceTransform,
                            _RYFTrackNameARDataDeviceTransform_V2_3,
                            _RYFTrackNameARDataEyeAnchors,
                            _RYFTrackNameARDataEyeAnchors_V2_2,
                            _RYFTrackNameARDataFaceAnchors,
                            _RYFTrackNameARDataFaceAnchors_V2_2,
                            _RYFTrackNameARDataHandAnchors,
                            _RYFTrackNameARDataHandAnchors_V2_2,
                            _RYFTrackNameARDataImageAnchors,
                            _RYFTrackNameARDataImageAnchors_V2_2,
                            _RYFTrackNameARDataMeshAnchors,
                            _RYFTrackNameARDataMeshAnchors_V2_3,
                            _RYFTrackNameARDataPlaneAnchors,
                            _RYFTrackNameARDataPlaneAnchors_V2_2,
                            _RYFTrackNameARData_V2_1, _RYFTrackNameARData_V2_2,
                            _RYFTrackNameAudioApp2Prefix,
                            _RYFTrackNameAudioApp2Prefix_V2_1,
                            _RYFTrackNameAudioOutput2,
                            _RYFTrackNameAudioOutput2_V2_1,
                            _RYFTrackNameAudioOutput2_V2_2,
                            _RYFTrackNameAudioSystem2,
                            _RYFTrackNameAudioSystem2_V2_1,
                            _RYFTrackNameAudioSystem2_V2_2,
                            _RYFTrackNameAudioSystem9,
                            _RYFTrackNameAudioSystem9_V2_1,
                            _RYFTrackNameAudioSystem9_V2_2,
                            _RYFTrackNameAudioSystemBinaural2,
                            _RYFTrackNameAudioSystemBinaural2_V2_1,
                            _RYFTrackNameAudioVoice,
                            _RYFTrackNameAudioVoiceBinaural2,
                            _RYFTrackNameAudioVoiceBinaural2_V2_1,
                            _RYFTrackNameAudioVoiceFOA4,
                            _RYFTrackNameAudioVoiceFOA4_V2_1,
                            _RYFTrackNameAudioVoiceSpatial6,
                            _RYFTrackNameAudioVoiceSpatial6_V2_1,
                            _RYFTrackNameAudioVoice_V2_1,
                            _RYFTrackNameAudioVoice_V2_2,
                            _RYFTrackNameCVCalibration,
                            _RYFTrackNameCVCalibration_V2_1,
                            _RYFTrackNameCVCalibration_V2_2,
                            _RYFTrackNameCameraBEyeL_IID,
                            _RYFTrackNameCameraBEyeL_IID_V2_1,
                            _RYFTrackNameCameraBEyeL_IID_V2_2,
                            _RYFTrackNameCameraBEyeL_IID_V2_3,
                            _RYFTrackNameCameraBEyeL_OID,
                            _RYFTrackNameCameraBEyeL_OID_V2_3,
                            _RYFTrackNameCameraBEyeL_RAW,
                            _RYFTrackNameCameraBEyeL_RAW_V2_3,
                            _RYFTrackNameCameraBEyeL_S1,
                            _RYFTrackNameCameraBEyeL_S1_V2_1,
                            _RYFTrackNameCameraBEyeL_S1_V2_2,
                            _RYFTrackNameCameraBEyeL_S2,
                            _RYFTrackNameCameraBEyeL_S2BU,
                            _RYFTrackNameCameraBEyeL_S2BUC,
                            _RYFTrackNameCameraBEyeL_S2BUC_V2_3,
                            _RYFTrackNameCameraBEyeL_S2BU_V2_3,
                            _RYFTrackNameCameraBEyeL_S2U,
                            _RYFTrackNameCameraBEyeL_S2U21,
                            _RYFTrackNameCameraBEyeL_S2U21_V2_3,
                            _RYFTrackNameCameraBEyeL_S2U52,
                            _RYFTrackNameCameraBEyeL_S2U52P,
                            _RYFTrackNameCameraBEyeL_S2U52P_V2_3,
                            _RYFTrackNameCameraBEyeL_S2U52_V2_3,
                            _RYFTrackNameCameraBEyeL_S2UC,
                            _RYFTrackNameCameraBEyeL_S2UC_V2_3,
                            _RYFTrackNameCameraBEyeL_S2U_V2_3,
                            _RYFTrackNameCameraBEyeL_S2_V2_1,
                            _RYFTrackNameCameraBEyeL_S2_V2_2,
                            _RYFTrackNameCameraBEyeR_IID,
                            _RYFTrackNameCameraBEyeR_IID_V2_1,
                            _RYFTrackNameCameraBEyeR_IID_V2_2,
                            _RYFTrackNameCameraBEyeR_IID_V2_3,
                            _RYFTrackNameCameraBEyeR_OID,
                            _RYFTrackNameCameraBEyeR_OID_V2_3,
                            _RYFTrackNameCameraBEyeR_RAW,
                            _RYFTrackNameCameraBEyeR_RAW_V2_3,
                            _RYFTrackNameCameraBEyeR_S1,
                            _RYFTrackNameCameraBEyeR_S1_V2_1,
                            _RYFTrackNameCameraBEyeR_S1_V2_2,
                            _RYFTrackNameCameraBEyeR_S2,
                            _RYFTrackNameCameraBEyeR_S2BU,
                            _RYFTrackNameCameraBEyeR_S2BUC,
                            _RYFTrackNameCameraBEyeR_S2BUC_V2_3,
                            _RYFTrackNameCameraBEyeR_S2BU_V2_3,
                            _RYFTrackNameCameraBEyeR_S2U,
                            _RYFTrackNameCameraBEyeR_S2U21,
                            _RYFTrackNameCameraBEyeR_S2U21_V2_3,
                            _RYFTrackNameCameraBEyeR_S2U52,
                            _RYFTrackNameCameraBEyeR_S2U52P,
                            _RYFTrackNameCameraBEyeR_S2U52P_V2_3,
                            _RYFTrackNameCameraBEyeR_S2U52_V2_3,
                            _RYFTrackNameCameraBEyeR_S2UC,
                            _RYFTrackNameCameraBEyeR_S2UC_V2_3,
                            _RYFTrackNameCameraBEyeR_S2U_V2_3,
                            _RYFTrackNameCameraBEyeR_S2_V2_1,
                            _RYFTrackNameCameraBEyeR_S2_V2_2,
                            _RYFTrackNameCameraBrowL_S1,
                            _RYFTrackNameCameraBrowL_S1_V2_1,
                            _RYFTrackNameCameraBrowL_S1_V2_2,
                            _RYFTrackNameCameraBrowR_S1,
                            _RYFTrackNameCameraBrowR_S1_V2_1,
                            _RYFTrackNameCameraBrowR_S1_V2_2,
                            _RYFTrackNameCameraDisplayLoopbackL,
                            _RYFTrackNameCameraDisplayLoopbackR,
                            _RYFTrackNameCameraDisplayWritebackL,
                            _RYFTrackNameCameraDisplayWritebackR,
                            _RYFTrackNameCameraDownL_Desgen,
                            _RYFTrackNameCameraDownL_Desgen_V2_3,
                            _RYFTrackNameCameraDownL_RAW,
                            _RYFTrackNameCameraDownL_RAW_V2_3,
                            _RYFTrackNameCameraDownL_S1,
                            _RYFTrackNameCameraDownL_S1_V2_1,
                            _RYFTrackNameCameraDownL_S1_V2_2,
                            _RYFTrackNameCameraDownL_S2,
                            _RYFTrackNameCameraDownL_S2BU,
                            _RYFTrackNameCameraDownL_S2BU_V2_3,
                            _RYFTrackNameCameraDownL_S2BW,
                            _RYFTrackNameCameraDownL_S2BWP,
                            _RYFTrackNameCameraDownL_S2BWP_V2_3,
                            _RYFTrackNameCameraDownL_S2BW_V2_3,
                            _RYFTrackNameCameraDownL_S2U,
                            _RYFTrackNameCameraDownL_S2U21,
                            _RYFTrackNameCameraDownL_S2U21_V2_3,
                            _RYFTrackNameCameraDownL_S2U_V2_3,
                            _RYFTrackNameCameraDownL_S2W,
                            _RYFTrackNameCameraDownL_S2WP,
                            _RYFTrackNameCameraDownL_S2WP_V2_3,
                            _RYFTrackNameCameraDownL_S2W_V2_3,
                            _RYFTrackNameCameraDownL_S2_V2_1,
                            _RYFTrackNameCameraDownL_S2_V2_2,
                            _RYFTrackNameCameraDownR_Desgen,
                            _RYFTrackNameCameraDownR_Desgen_V2_3,
                            _RYFTrackNameCameraDownR_RAW,
                            _RYFTrackNameCameraDownR_RAW_V2_3,
                            _RYFTrackNameCameraDownR_S1,
                            _RYFTrackNameCameraDownR_S1_V2_1,
                            _RYFTrackNameCameraDownR_S1_V2_2,
                            _RYFTrackNameCameraDownR_S2,
                            _RYFTrackNameCameraDownR_S2BU,
                            _RYFTrackNameCameraDownR_S2BU_V2_3,
                            _RYFTrackNameCameraDownR_S2BW,
                            _RYFTrackNameCameraDownR_S2BWP,
                            _RYFTrackNameCameraDownR_S2BWP_V2_3,
                            _RYFTrackNameCameraDownR_S2BW_V2_3,
                            _RYFTrackNameCameraDownR_S2U,
                            _RYFTrackNameCameraDownR_S2U21,
                            _RYFTrackNameCameraDownR_S2U21_V2_3,
                            _RYFTrackNameCameraDownR_S2U_V2_3,
                            _RYFTrackNameCameraDownR_S2W,
                            _RYFTrackNameCameraDownR_S2WP,
                            _RYFTrackNameCameraDownR_S2WP_V2_3,
                            _RYFTrackNameCameraDownR_S2W_V2_3,
                            _RYFTrackNameCameraDownR_S2_V2_1,
                            _RYFTrackNameCameraDownR_S2_V2_2,
                            _RYFTrackNameCameraEyeL_IID,
                            _RYFTrackNameCameraEyeL_IID_V2_1,
                            _RYFTrackNameCameraEyeL_IID_V2_2,
                            _RYFTrackNameCameraEyeL_S1,
                            _RYFTrackNameCameraEyeL_S1_V2_1,
                            _RYFTrackNameCameraEyeL_S1_V2_2,
                            _RYFTrackNameCameraEyeL_S2,
                            _RYFTrackNameCameraEyeL_S2_V2_1,
                            _RYFTrackNameCameraEyeL_S2_V2_2,
                            _RYFTrackNameCameraEyeR_IID,
                            _RYFTrackNameCameraEyeR_IID_V2_1,
                            _RYFTrackNameCameraEyeR_IID_V2_2,
                            _RYFTrackNameCameraEyeR_S1,
                            _RYFTrackNameCameraEyeR_S1_V2_1,
                            _RYFTrackNameCameraEyeR_S1_V2_2,
                            _RYFTrackNameCameraEyeR_S2,
                            _RYFTrackNameCameraEyeR_S2_V2_1,
                            _RYFTrackNameCameraEyeR_S2_V2_2,
                            _RYFTrackNameCameraGridView,
                            _RYFTrackNameCameraGridView_V2_1,
                            _RYFTrackNameCameraGridView_V2_2,
                            _RYFTrackNameCameraJasperTOF,
                            _RYFTrackNameCameraJasperTOF_V2_1,
                            _RYFTrackNameCameraJasperTOF_V2_2,
                            _RYFTrackNameCameraJasper_PointCloud,
                            _RYFTrackNameCameraJasper_PointCloud_V2_3,
                            _RYFTrackNameCameraJasper_RAW,
                            _RYFTrackNameCameraJasper_RAW_V2_3,
                            _RYFTrackNameCameraJawL_RAW,
                            _RYFTrackNameCameraJawL_RAW_V2_3,
                            _RYFTrackNameCameraJawL_S1,
                            _RYFTrackNameCameraJawL_S1_V2_1,
                            _RYFTrackNameCameraJawL_S1_V2_2,
                            _RYFTrackNameCameraJawL_S2,
                            _RYFTrackNameCameraJawL_S2BU,
                            _RYFTrackNameCameraJawL_S2BU_V2_3,
                            _RYFTrackNameCameraJawL_S2BW,
                            _RYFTrackNameCameraJawL_S2BWP,
                            _RYFTrackNameCameraJawL_S2BWP_V2_3,
                            _RYFTrackNameCameraJawL_S2BW_V2_3,
                            _RYFTrackNameCameraJawL_S2U,
                            _RYFTrackNameCameraJawL_S2U21,
                            _RYFTrackNameCameraJawL_S2U21_V2_3,
                            _RYFTrackNameCameraJawL_S2U_V2_3,
                            _RYFTrackNameCameraJawL_S2W,
                            _RYFTrackNameCameraJawL_S2WP,
                            _RYFTrackNameCameraJawL_S2WP_V2_3,
                            _RYFTrackNameCameraJawL_S2W_V2_3,
                            _RYFTrackNameCameraJawL_S2_V2_1,
                            _RYFTrackNameCameraJawL_S2_V2_2,
                            _RYFTrackNameCameraJawR_RAW,
                            _RYFTrackNameCameraJawR_RAW_V2_3,
                            _RYFTrackNameCameraJawR_S1,
                            _RYFTrackNameCameraJawR_S1_V2_1,
                            _RYFTrackNameCameraJawR_S1_V2_2,
                            _RYFTrackNameCameraJawR_S2,
                            _RYFTrackNameCameraJawR_S2BU,
                            _RYFTrackNameCameraJawR_S2BU_V2_3,
                            _RYFTrackNameCameraJawR_S2BW,
                            _RYFTrackNameCameraJawR_S2BWP,
                            _RYFTrackNameCameraJawR_S2BWP_V2_3,
                            _RYFTrackNameCameraJawR_S2BW_V2_3,
                            _RYFTrackNameCameraJawR_S2U,
                            _RYFTrackNameCameraJawR_S2U21,
                            _RYFTrackNameCameraJawR_S2U21_V2_3,
                            _RYFTrackNameCameraJawR_S2U_V2_3,
                            _RYFTrackNameCameraJawR_S2W,
                            _RYFTrackNameCameraJawR_S2WP,
                            _RYFTrackNameCameraJawR_S2WP_V2_3,
                            _RYFTrackNameCameraJawR_S2W_V2_3,
                            _RYFTrackNameCameraJawR_S2_V2_1,
                            _RYFTrackNameCameraJawR_S2_V2_2,
                            _RYFTrackNameCameraMainL,
                            _RYFTrackNameCameraMainL_Desgen,
                            _RYFTrackNameCameraMainL_Desgen_V2_3,
                            _RYFTrackNameCameraMainL_PT,
                            _RYFTrackNameCameraMainL_PT_V2_3,
                            _RYFTrackNameCameraMainL_RAW,
                            _RYFTrackNameCameraMainL_RAW_V2_3,
                            _RYFTrackNameCameraMainL_S1,
                            _RYFTrackNameCameraMainL_S1_V2_1,
                            _RYFTrackNameCameraMainL_S1_V2_2,
                            _RYFTrackNameCameraMainL_S2,
                            _RYFTrackNameCameraMainL_S2_V2_1,
                            _RYFTrackNameCameraMainL_S2_V2_2,
                            _RYFTrackNameCameraMainL_S3,
                            _RYFTrackNameCameraMainL_S3R,
                            _RYFTrackNameCameraMainL_S3R_V2_1,
                            _RYFTrackNameCameraMainL_S3R_V2_2,
                            _RYFTrackNameCameraMainL_S3W,
                            _RYFTrackNameCameraMainL_S3WP,
                            _RYFTrackNameCameraMainL_S3WP_V2_3,
                            _RYFTrackNameCameraMainL_S3WR,
                            _RYFTrackNameCameraMainL_S3WR31,
                            _RYFTrackNameCameraMainL_S3WR31_V2_3,
                            _RYFTrackNameCameraMainL_S3WRP_1,
                            _RYFTrackNameCameraMainL_S3WRP_1_V2_3,
                            _RYFTrackNameCameraMainL_S3WR_10,
                            _RYFTrackNameCameraMainL_S3WR_10_V2_3,
                            _RYFTrackNameCameraMainL_S3WR_V2_3,
                            _RYFTrackNameCameraMainL_S3W_V2_3,
                            _RYFTrackNameCameraMainL_S3_V2_1,
                            _RYFTrackNameCameraMainL_S3_V2_2,
                            _RYFTrackNameCameraMainL_S4,
                            _RYFTrackNameCameraMainL_S4W,
                            _RYFTrackNameCameraMainL_S4W_V2_3,
                            _RYFTrackNameCameraMainL_S4_V2_1,
                            _RYFTrackNameCameraMainL_S4_V2_2,
                            _RYFTrackNameCameraMainL_S5,
                            _RYFTrackNameCameraMainL_S5_V2_1,
                            _RYFTrackNameCameraMainL_S5_V2_2,
                            _RYFTrackNameCameraMainL_S6,
                            _RYFTrackNameCameraMainL_S6_V2_1,
                            _RYFTrackNameCameraMainL_S6_V2_2,
                            _RYFTrackNameCameraMainL_S8,
                            _RYFTrackNameCameraMainL_S8U,
                            _RYFTrackNameCameraMainL_S8U41_10,
                            _RYFTrackNameCameraMainL_S8U41_10_V2_3,
                            _RYFTrackNameCameraMainL_S8U_1,
                            _RYFTrackNameCameraMainL_S8U_10,
                            _RYFTrackNameCameraMainL_S8U_10_V2_3,
                            _RYFTrackNameCameraMainL_S8U_1_V2_3,
                            _RYFTrackNameCameraMainL_S8U_V2_3,
                            _RYFTrackNameCameraMainL_S8WP_1,
                            _RYFTrackNameCameraMainL_S8WP_1_V2_3,
                            _RYFTrackNameCameraMainL_S8W_1,
                            _RYFTrackNameCameraMainL_S8W_1_V2_3,
                            _RYFTrackNameCameraMainL_S8_V2_1,
                            _RYFTrackNameCameraMainL_S8_V2_2,
                            _RYFTrackNameCameraMainL_V2_1,
                            _RYFTrackNameCameraMainL_V2_2,
                            _RYFTrackNameCameraMainR,
                            _RYFTrackNameCameraMainR_Desgen,
                            _RYFTrackNameCameraMainR_Desgen_V2_3,
                            _RYFTrackNameCameraMainR_PT,
                            _RYFTrackNameCameraMainR_PT_V2_3,
                            _RYFTrackNameCameraMainR_RAW,
                            _RYFTrackNameCameraMainR_RAW_V2_3,
                            _RYFTrackNameCameraMainR_S1,
                            _RYFTrackNameCameraMainR_S1_V2_1,
                            _RYFTrackNameCameraMainR_S1_V2_2,
                            _RYFTrackNameCameraMainR_S2,
                            _RYFTrackNameCameraMainR_S2_V2_1,
                            _RYFTrackNameCameraMainR_S2_V2_2,
                            _RYFTrackNameCameraMainR_S3,
                            _RYFTrackNameCameraMainR_S3R,
                            _RYFTrackNameCameraMainR_S3R_V2_1,
                            _RYFTrackNameCameraMainR_S3R_V2_2,
                            _RYFTrackNameCameraMainR_S3W,
                            _RYFTrackNameCameraMainR_S3WP,
                            _RYFTrackNameCameraMainR_S3WP_V2_3,
                            _RYFTrackNameCameraMainR_S3WR,
                            _RYFTrackNameCameraMainR_S3WR31,
                            _RYFTrackNameCameraMainR_S3WR31_V2_3,
                            _RYFTrackNameCameraMainR_S3WRP_1,
                            _RYFTrackNameCameraMainR_S3WRP_1_V2_3,
                            _RYFTrackNameCameraMainR_S3WR_10,
                            _RYFTrackNameCameraMainR_S3WR_10_V2_3,
                            _RYFTrackNameCameraMainR_S3WR_V2_3,
                            _RYFTrackNameCameraMainR_S3W_V2_3,
                            _RYFTrackNameCameraMainR_S3_V2_1,
                            _RYFTrackNameCameraMainR_S3_V2_2,
                            _RYFTrackNameCameraMainR_S4,
                            _RYFTrackNameCameraMainR_S4W,
                            _RYFTrackNameCameraMainR_S4W_V2_3,
                            _RYFTrackNameCameraMainR_S4_V2_1,
                            _RYFTrackNameCameraMainR_S4_V2_2,
                            _RYFTrackNameCameraMainR_S5,
                            _RYFTrackNameCameraMainR_S5_V2_1,
                            _RYFTrackNameCameraMainR_S5_V2_2,
                            _RYFTrackNameCameraMainR_S6,
                            _RYFTrackNameCameraMainR_S6_V2_1,
                            _RYFTrackNameCameraMainR_S6_V2_2,
                            _RYFTrackNameCameraMainR_S8,
                            _RYFTrackNameCameraMainR_S8U,
                            _RYFTrackNameCameraMainR_S8U41_10,
                            _RYFTrackNameCameraMainR_S8U41_10_V2_3,
                            _RYFTrackNameCameraMainR_S8U_1,
                            _RYFTrackNameCameraMainR_S8U_10,
                            _RYFTrackNameCameraMainR_S8U_10_V2_3,
                            _RYFTrackNameCameraMainR_S8U_1_V2_3,
                            _RYFTrackNameCameraMainR_S8U_V2_3,
                            _RYFTrackNameCameraMainR_S8WP_1,
                            _RYFTrackNameCameraMainR_S8WP_1_V2_3,
                            _RYFTrackNameCameraMainR_S8W_1,
                            _RYFTrackNameCameraMainR_S8W_1_V2_3,
                            _RYFTrackNameCameraMainR_S8_V2_1,
                            _RYFTrackNameCameraMainR_S8_V2_2,
                            _RYFTrackNameCameraMainR_V2_1,
                            _RYFTrackNameCameraMainR_V2_2,
                            _RYFTrackNameCameraMainS_PCE,
                            _RYFTrackNameCameraMainS_PCE_V2_1,
                            _RYFTrackNameCameraMainS_PCE_V2_2,
                            _RYFTrackNameCameraMainS_STEREO_PCE,
                            _RYFTrackNameCameraMainS_STEREO_PCE_V2_3,
                            _RYFTrackNameCameraMattingL,
                            _RYFTrackNameCameraMattingL_V2_1,
                            _RYFTrackNameCameraMattingR,
                            _RYFTrackNameCameraMattingR_V2_1,
                            _RYFTrackNameCameraMattingS,
                            _RYFTrackNameCameraMattingS_V2_1,
                            _RYFTrackNameCameraMetricDepth,
                            _RYFTrackNameCameraMixedL,
                            _RYFTrackNameCameraMixedL_V2_1,
                            _RYFTrackNameCameraMixedL_V2_2,
                            _RYFTrackNameCameraMixedR,
                            _RYFTrackNameCameraMixedR_V2_1,
                            _RYFTrackNameCameraMixedR_V2_2,
                            _RYFTrackNameCameraMixedS,
                            _RYFTrackNameCameraMixedS_V2_1,
                            _RYFTrackNameCameraMixedS_V2_2,
                            _RYFTrackNameCameraNEyeL_BOC,
                            _RYFTrackNameCameraNEyeL_BOC_V2_3,
                            _RYFTrackNameCameraNEyeL_IID,
                            _RYFTrackNameCameraNEyeL_IID_V2_3,
                            _RYFTrackNameCameraNEyeL_OC,
                            _RYFTrackNameCameraNEyeL_OC_V2_3,
                            _RYFTrackNameCameraNEyeL_OID,
                            _RYFTrackNameCameraNEyeL_OID_V2_3,
                            _RYFTrackNameCameraNEyeL_RAW,
                            _RYFTrackNameCameraNEyeL_RAW_V2_3,
                            _RYFTrackNameCameraNEyeL_S2BU,
                            _RYFTrackNameCameraNEyeL_S2BUC,
                            _RYFTrackNameCameraNEyeL_S2BUC_V2_3,
                            _RYFTrackNameCameraNEyeL_S2BU_V2_3,
                            _RYFTrackNameCameraNEyeL_S2U,
                            _RYFTrackNameCameraNEyeL_S2U21,
                            _RYFTrackNameCameraNEyeL_S2U21_V2_3,
                            _RYFTrackNameCameraNEyeL_S2U52,
                            _RYFTrackNameCameraNEyeL_S2U52P,
                            _RYFTrackNameCameraNEyeL_S2U52P_V2_3,
                            _RYFTrackNameCameraNEyeL_S2U52_V2_3,
                            _RYFTrackNameCameraNEyeL_S2UC,
                            _RYFTrackNameCameraNEyeL_S2UC_V2_3,
                            _RYFTrackNameCameraNEyeL_S2U_V2_3,
                            _RYFTrackNameCameraNEyeR_BOC,
                            _RYFTrackNameCameraNEyeR_BOC_V2_3,
                            _RYFTrackNameCameraNEyeR_IID,
                            _RYFTrackNameCameraNEyeR_IID_V2_3,
                            _RYFTrackNameCameraNEyeR_OC,
                            _RYFTrackNameCameraNEyeR_OC_V2_3,
                            _RYFTrackNameCameraNEyeR_OID,
                            _RYFTrackNameCameraNEyeR_OID_V2_3,
                            _RYFTrackNameCameraNEyeR_RAW,
                            _RYFTrackNameCameraNEyeR_RAW_V2_3,
                            _RYFTrackNameCameraNEyeR_S2BU,
                            _RYFTrackNameCameraNEyeR_S2BUC,
                            _RYFTrackNameCameraNEyeR_S2BUC_V2_3,
                            _RYFTrackNameCameraNEyeR_S2BU_V2_3,
                            _RYFTrackNameCameraNEyeR_S2U,
                            _RYFTrackNameCameraNEyeR_S2U21,
                            _RYFTrackNameCameraNEyeR_S2U21_V2_3,
                            _RYFTrackNameCameraNEyeR_S2U52,
                            _RYFTrackNameCameraNEyeR_S2U52P,
                            _RYFTrackNameCameraNEyeR_S2U52P_V2_3,
                            _RYFTrackNameCameraNEyeR_S2U52_V2_3,
                            _RYFTrackNameCameraNEyeR_S2UC,
                            _RYFTrackNameCameraNEyeR_S2UC_V2_3,
                            _RYFTrackNameCameraNEyeR_S2U_V2_3,
                            _RYFTrackNameCameraPearl, _RYFTrackNameCameraPearlIR,
                            _RYFTrackNameCameraPearlIR_V2_1,
                            _RYFTrackNameCameraPearlIR_V2_2,
                            _RYFTrackNameCameraPearl_DX,
                            _RYFTrackNameCameraPearl_DX_V2_3,
                            _RYFTrackNameCameraPearl_DY,
                            _RYFTrackNameCameraPearl_DY_V2_3,
                            _RYFTrackNameCameraPearl_Depth,
                            _RYFTrackNameCameraPearl_Depth_V2_3,
                            _RYFTrackNameCameraPearl_IRU,
                            _RYFTrackNameCameraPearl_IRU_V2_3,
                            _RYFTrackNameCameraPearl_IRW,
                            _RYFTrackNameCameraPearl_IRW_V2_3,
                            _RYFTrackNameCameraPearl_Score,
                            _RYFTrackNameCameraPearl_Score_V2_3,
                            _RYFTrackNameCameraPearl_V2_1,
                            _RYFTrackNameCameraPearl_V2_2,
                            _RYFTrackNameCameraSideL_Desgen,
                            _RYFTrackNameCameraSideL_Desgen_V2_3,
                            _RYFTrackNameCameraSideL_RAW,
                            _RYFTrackNameCameraSideL_RAW_V2_3,
                            _RYFTrackNameCameraSideL_S1,
                            _RYFTrackNameCameraSideL_S1_V2_1,
                            _RYFTrackNameCameraSideL_S1_V2_2,
                            _RYFTrackNameCameraSideL_S2,
                            _RYFTrackNameCameraSideL_S2BU,
                            _RYFTrackNameCameraSideL_S2BU_V2_3,
                            _RYFTrackNameCameraSideL_S2BW,
                            _RYFTrackNameCameraSideL_S2BWP,
                            _RYFTrackNameCameraSideL_S2BWP_V2_3,
                            _RYFTrackNameCameraSideL_S2BW_V2_3,
                            _RYFTrackNameCameraSideL_S2U,
                            _RYFTrackNameCameraSideL_S2U21,
                            _RYFTrackNameCameraSideL_S2U21_V2_3,
                            _RYFTrackNameCameraSideL_S2U_V2_3,
                            _RYFTrackNameCameraSideL_S2W,
                            _RYFTrackNameCameraSideL_S2WP,
                            _RYFTrackNameCameraSideL_S2WP_V2_3,
                            _RYFTrackNameCameraSideL_S2W_V2_3,
                            _RYFTrackNameCameraSideL_S2_V2_1,
                            _RYFTrackNameCameraSideL_S2_V2_2,
                            _RYFTrackNameCameraSideR_Desgen,
                            _RYFTrackNameCameraSideR_Desgen_V2_3,
                            _RYFTrackNameCameraSideR_RAW,
                            _RYFTrackNameCameraSideR_RAW_V2_3,
                            _RYFTrackNameCameraSideR_S1,
                            _RYFTrackNameCameraSideR_S1_V2_1,
                            _RYFTrackNameCameraSideR_S1_V2_2,
                            _RYFTrackNameCameraSideR_S2,
                            _RYFTrackNameCameraSideR_S2BU,
                            _RYFTrackNameCameraSideR_S2BU_V2_3,
                            _RYFTrackNameCameraSideR_S2BW,
                            _RYFTrackNameCameraSideR_S2BWP,
                            _RYFTrackNameCameraSideR_S2BWP_V2_3,
                            _RYFTrackNameCameraSideR_S2BW_V2_3,
                            _RYFTrackNameCameraSideR_S2U,
                            _RYFTrackNameCameraSideR_S2U21,
                            _RYFTrackNameCameraSideR_S2U21_V2_3,
                            _RYFTrackNameCameraSideR_S2U_V2_3,
                            _RYFTrackNameCameraSideR_S2W,
                            _RYFTrackNameCameraSideR_S2WP,
                            _RYFTrackNameCameraSideR_S2WP_V2_3,
                            _RYFTrackNameCameraSideR_S2W_V2_3,
                            _RYFTrackNameCameraSideR_S2_V2_1,
                            _RYFTrackNameCameraSideR_S2_V2_2,
                            _RYFTrackNameCameraVRAlphaL,
                            _RYFTrackNameCameraVRAlphaL_V2_1,
                            _RYFTrackNameCameraVRAlphaL_V2_2,
                            _RYFTrackNameCameraVRAlphaR,
                            _RYFTrackNameCameraVRAlphaR_V2_1,
                            _RYFTrackNameCameraVRAlphaR_V2_2,
                            _RYFTrackNameCameraVRColorAlphaL,
                            _RYFTrackNameCameraVRColorAlphaL_V2_1,
                            _RYFTrackNameCameraVRColorAlphaL_V2_2,
                            _RYFTrackNameCameraVRColorAlphaR,
                            _RYFTrackNameCameraVRColorAlphaR_V2_1,
                            _RYFTrackNameCameraVRColorAlphaR_V2_2,
                            _RYFTrackNameCameraVRColorL,
                            _RYFTrackNameCameraVRColorL_V2_1,
                            _RYFTrackNameCameraVRColorL_V2_2,
                            _RYFTrackNameCameraVRColorR,
                            _RYFTrackNameCameraVRColorR_V2_1,
                            _RYFTrackNameCameraVRColorR_V2_2,
                            _RYFTrackNameCameraVRDepthL,
                            _RYFTrackNameCameraVRDepthL_V2_1,
                            _RYFTrackNameCameraVRDepthL_V2_2,
                            _RYFTrackNameCameraVRDepthR,
                            _RYFTrackNameCameraVRDepthR_V2_1,
                            _RYFTrackNameCameraVRDepthR_V2_2,
                            _RYFTrackNameCameraVideoViewMattingAlphaL,
                            _RYFTrackNameCameraVideoViewMattingAlphaL_V2_2,
                            _RYFTrackNameCameraVideoViewMattingAlphaR,
                            _RYFTrackNameCameraVideoViewMattingAlphaR_V2_2,
                            _RYFTrackNameCameraVideoViewMattingAlphaS,
                            _RYFTrackNameCameraVideoViewMattingAlphaS_V2_2,
                            _RYFTrackNameCameraVideoViewMattingColorL,
                            _RYFTrackNameCameraVideoViewMattingColorL_V2_2,
                            _RYFTrackNameCameraVideoViewMattingColorR,
                            _RYFTrackNameCameraVideoViewMattingColorR_V2_2,
                            _RYFTrackNameCameraVideoViewMattingColorS,
                            _RYFTrackNameCameraVideoViewMattingColorS_V2_2,
                            _RYFTrackNameCameraVideoViewMattingL,
                            _RYFTrackNameCameraVideoViewMattingL_V2_2,
                            _RYFTrackNameCameraVideoViewMattingR,
                            _RYFTrackNameCameraVideoViewMattingR_V2_2,
                            _RYFTrackNameCameraVideoViewMattingS,
                            _RYFTrackNameCameraVideoViewMattingS_V2_2,
                            _RYFTrackNameCameraVideoViewVirtualAlphaL,
                            _RYFTrackNameCameraVideoViewVirtualAlphaL_V2_2,
                            _RYFTrackNameCameraVideoViewVirtualAlphaR,
                            _RYFTrackNameCameraVideoViewVirtualAlphaR_V2_2,
                            _RYFTrackNameCameraVideoViewVirtualAlphaS,
                            _RYFTrackNameCameraVideoViewVirtualAlphaS_V2_2,
                            _RYFTrackNameCameraVideoViewVirtualColorL,
                            _RYFTrackNameCameraVideoViewVirtualColorL_V2_2,
                            _RYFTrackNameCameraVideoViewVirtualColorR,
                            _RYFTrackNameCameraVideoViewVirtualColorR_V2_2,
                            _RYFTrackNameCameraVideoViewVirtualColorS,
                            _RYFTrackNameCameraVideoViewVirtualColorS_V2_2,
                            _RYFTrackNameCameraVideoViewVirtualL,
                            _RYFTrackNameCameraVideoViewVirtualL_V2_2,
                            _RYFTrackNameCameraVideoViewVirtualR,
                            _RYFTrackNameCameraVideoViewVirtualR_V2_2,
                            _RYFTrackNameCameraVideoViewVirtualS,
                            _RYFTrackNameCameraVideoViewVirtualS_V2_2,
                            _RYFTrackNameCameraVirtualL,
                            _RYFTrackNameCameraVirtualL_V2_1,
                            _RYFTrackNameCameraVirtualL_V2_2,
                            _RYFTrackNameCameraVirtualR,
                            _RYFTrackNameCameraVirtualR_V2_1,
                            _RYFTrackNameCameraVirtualR_V2_2,
                            _RYFTrackNameCameraVirtualS,
                            _RYFTrackNameCameraVirtualS_V2_1,
                            _RYFTrackNameCameraVirtualS_V2_2,
                            _RYFTrackNameCameraWorldDepthL,
                            _RYFTrackNameCameraWorldDepthL_V2_1,
                            _RYFTrackNameCameraWorldDepthL_V2_2,
                            _RYFTrackNameCameraWorldDepthR,
                            _RYFTrackNameCameraWorldDepthR_V2_1,
                            _RYFTrackNameCameraWorldDepthR_V2_2,
                            _RYFTrackNameDeviceMotion,
                            _RYFTrackNameDeviceMotion_V2_3,
                            _RYFTrackNameDeviceTransform,
                            _RYFTrackNameDeviceTransform_V2_3,
                            _RYFTrackNameFastPathCompass,
                            _RYFTrackNameFastPathCompass_V2_3,
                            _RYFTrackNameFastPathControlL,
                            _RYFTrackNameFastPathControlL_V2_3,
                            _RYFTrackNameFastPathControlR,
                            _RYFTrackNameFastPathControlR_V2_3,
                            _RYFTrackNameFastPathIMU,
                            _RYFTrackNameFastPathIMU_V2_3,
                            _RYFTrackNameGridViewCamera, _RYFTrackNameHIDALS,
                            _RYFTrackNameHIDALS_V2_1, _RYFTrackNameHIDALS_V2_2,
                            _RYFTrackNameHIDAccelerometer,
                            _RYFTrackNameHIDAccelerometer_V2_1,
                            _RYFTrackNameHIDAccelerometer_V2_2,
                            _RYFTrackNameHIDCompass,
                            _RYFTrackNameHIDCompass_V2_1,
                            _RYFTrackNameHIDCompass_V2_2,
                            _RYFTrackNameHIDDevicePrefix,
                            _RYFTrackNameHIDGyroscope,
                            _RYFTrackNameHIDGyroscope_V2_1,
                            _RYFTrackNameHIDGyroscope_V2_2,
                            _RYFTrackNameHIDMotion, _RYFTrackNameHIDMotion_V2_2,
                            _RYFTrackNameIPD, _RYFTrackNameIPD_V2_1,
                            _RYFTrackNameIPD_V2_2, _RYFTrackNameLTCTimecode,
                            _RYFTrackNameLTCTimecode_V2_3,
                            _RYFTrackNameLegacyAudioSystem12_V2_1,
                            _RYFTrackNameLegacyAudioSystem12_V2_2,
                            _RYFTrackNameLegacyMeasurementAudioSystem,
                            _RYFTrackNameLegacyVoiceAudioSystem,
                            _RYFTrackNameMRCameraLeft,
                            _RYFTrackNameMRCameraRight,
                            _RYFTrackNameMRCameraStereo,
                            _RYFTrackNameManagedAssets,
                            _RYFTrackNameManagedAssets_V2_3,
                            _RYFTrackNameMattingCameraLeft,
                            _RYFTrackNameMattingCameraRight,
                            _RYFTrackNameMattingCameraStereo,
                            _RYFTrackNameMeshPrefix,
                            _RYFTrackNameMeshPrefix_V2_3,
                            _RYFTrackNameMesh_CCAM_IRW,
                            _RYFTrackNameMesh_CCAM_IRW_V2_3,
                            _RYFTrackNameMesh_DCAML_S2BU_S2BW,
                            _RYFTrackNameMesh_DCAML_S2BU_S2BW_V2_3,
                            _RYFTrackNameMesh_DCAML_S2U_S2W,
                            _RYFTrackNameMesh_DCAML_S2U_S2W_V2_3,
                            _RYFTrackNameMesh_DCAMR_S2BU_S2BW,
                            _RYFTrackNameMesh_DCAMR_S2BU_S2BW_V2_3,
                            _RYFTrackNameMesh_DCAMR_S2U_S2W,
                            _RYFTrackNameMesh_DCAMR_S2U_S2W_V2_3,
                            _RYFTrackNameMesh_JASPER,
                            _RYFTrackNameMesh_JASPER_V2_3,
                            _RYFTrackNameMesh_JCAML_S2BU_S2BW,
                            _RYFTrackNameMesh_JCAML_S2BU_S2BW_V2_3,
                            _RYFTrackNameMesh_JCAML_S2U_S2W,
                            _RYFTrackNameMesh_JCAML_S2U_S2W_V2_3,
                            _RYFTrackNameMesh_JCAMR_S2BU_S2BW,
                            _RYFTrackNameMesh_JCAMR_S2BU_S2BW_V2_3,
                            _RYFTrackNameMesh_JCAMR_S2U_S2W,
                            _RYFTrackNameMesh_JCAMR_S2U_S2W_V2_3,
                            _RYFTrackNameMesh_MCAML_S3W_S3WR,
                            _RYFTrackNameMesh_MCAML_S3W_S3WR31,
                            _RYFTrackNameMesh_MCAML_S3W_S3WR31_FIXED_V2_3,
                            _RYFTrackNameMesh_MCAML_S3W_S3WR31_V2_3,
                            _RYFTrackNameMesh_MCAML_S3W_S3WR_V2_3,
                            _RYFTrackNameMesh_MCAMR_S3W_S3WR,
                            _RYFTrackNameMesh_MCAMR_S3W_S3WR31,
                            _RYFTrackNameMesh_MCAMR_S3W_S3WR31_FIXED_V2_3,
                            _RYFTrackNameMesh_MCAMR_S3W_S3WR31_V2_3,
                            _RYFTrackNameMesh_MCAMR_S3W_S3WR_V2_3,
                            _RYFTrackNameMesh_SCAML_S2BU_S2BW,
                            _RYFTrackNameMesh_SCAML_S2BU_S2BW_V2_3,
                            _RYFTrackNameMesh_SCAML_S2U_S2W,
                            _RYFTrackNameMesh_SCAML_S2U_S2W_V2_3,
                            _RYFTrackNameMesh_SCAMR_S2BU_S2BW,
                            _RYFTrackNameMesh_SCAMR_S2BU_S2BW_V2_3,
                            _RYFTrackNameMesh_SCAMR_S2U_S2W,
                            _RYFTrackNameMesh_SCAMR_S2U_S2W_V2_3,
                            _RYFTrackNameMesh_VMCAML_S3WR,
                            _RYFTrackNameMesh_VMCAML_S3WR31,
                            _RYFTrackNameMesh_VMCAML_S3WR31_FIXED_V2_3,
                            _RYFTrackNameMesh_VMCAML_S3WR31_V2_3,
                            _RYFTrackNameMesh_VMCAML_S3WR_V2_3,
                            _RYFTrackNameMesh_VMCAMR_S3WR,
                            _RYFTrackNameMesh_VMCAMR_S3WR31,
                            _RYFTrackNameMesh_VMCAMR_S3WR31_FIXED_V2_3,
                            _RYFTrackNameMesh_VMCAMR_S3WR31_V2_3,
                            _RYFTrackNameMesh_VMCAMR_S3WR_V2_3,
                            _RYFTrackNameMesh_WMCAML_S1,
                            _RYFTrackNameMesh_WMCAML_S1_V2_3,
                            _RYFTrackNameMesh_WMCAMR_S1,
                            _RYFTrackNameMesh_WMCAMR_S1_V2_3,
                            _RYFTrackNamePenrose, _RYFTrackNamePenrose_V2_2,
                            _RYFTrackNamePolarisPrefix,
                            _RYFTrackNamePolarisPrefix_V2_3,
                            _RYFTrackNameREAssets, _RYFTrackNameREAssets_V2_1,
                            _RYFTrackNameREAssets_V2_2, _RYFTrackNameRECALayer,
                            _RYFTrackNameRECALayerMetadata,
                            _RYFTrackNameRECALayerMetadata_V2_3,
                            _RYFTrackNameRECALayer_V2_3, _RYFTrackNameREMetadata,
                            _RYFTrackNameREMetadata_V2_1,
                            _RYFTrackNameREMetadata_V2_2, _RYFTrackNameREScene,
                            _RYFTrackNameREScene_V2_1, _RYFTrackNameREScene_V2_2,
                            _RYFTrackNameRealityARData,
                            _RYFTrackNameRealityAssets,
                            _RYFTrackNameRealityMetadata,
                            _RYFTrackNameRealityScene,
                            _RYFTrackNameSpatialVideoS, _RYFTrackNameUserEvent,
                            _RYFTrackNameUserEvent_V2_1,
                            _RYFTrackNameUserEvent_V2_2,
                            _RYFTrackNameVRAlphaLeft, _RYFTrackNameVRAlphaRight,
                            _RYFTrackNameVRCameraLeft,
                            _RYFTrackNameVRCameraRight,
                            _RYFTrackNameVRCameraStereo,
                            _RYFTrackNameVRColorAlphaLeft,
                            _RYFTrackNameVRColorAlphaRight,
                            _RYFTrackNameVRColorLeft, _RYFTrackNameVRColorRight,
                            _RYFTrackNameVRDepthLeft, _RYFTrackNameVRDepthRight,
                            _RYFTrackNameVSync, _RYFTrackNameVSync_V2_2,
                            _RYFTrackNameWiFiScan, _RYFTrackNameWiFiScan_V2_3,
                            _RYFTrackNameWorldDepthLeft,
                            _RYFTrackNameWorldDepthRight,
                            _RYFTrackShortNameARData,
                            _RYFTrackShortNameARData_V2_1,
                            _RYFTrackShortNameARData_V2_2,
                            _RYFTrackShortNameREAssets,
                            _RYFTrackShortNameREAssets_V2_1,
                            _RYFTrackShortNameREAssets_V2_2,
                            _RYFTrackShortNameREMetadata,
                            _RYFTrackShortNameREMetadata_V2_1,
                            _RYFTrackShortNameREMetadata_V2_2,
                            _RYFTrackShortNameREScene,
                            _RYFTrackShortNameREScene_V2_1,
                            _RYFTrackShortNameREScene_V2_2,
                            _RYFTrackShortNameRealityARData,
                            _RYFTrackShortNameRealityAssets,
                            _RYFTrackShortNameRealityMetadata,
                            _RYFTrackShortNameRealityScene,
                            _RoyaCaptureCoreVersionNumber,
                            _RoyaCaptureCoreVersionString, __Z11EpochToMachd,
                            __Z11FormatErrori,
                            __Z11SplitStringNSt3__112basic_stringIcNS_11char_traitsIcEENS_9allocatorIcEEEEc,
                            __Z12MachToCMTimey, __Z13MachToSecondsy,
                            __Z13SecondsToMachd,
                            __Z13sessionRetainPN4roya12SessionProxyE,
                            __Z14GetLogInstancev, __Z14MachSecondsNowv,
                            __Z14sessionReleasePN4roya12SessionProxyE,
                            __Z15ParseVideoCodecRKNSt3__112basic_stringIcNS_11char_traitsIcEENS_9allocatorIcEEEE,
                            __Z15parseReportTypeP8NSString,
                            __Z16retainDataSourcePN4roya15DataSourceProxyE,
                            __Z17GetEpochTimestampv, __Z17MachToNanoSecondsy,
                            __Z17NanoSecondsToMachy,
                            __Z17releaseDataSourcePN4roya15DataSourceProxyE,
                            __Z18MicroSecondsToMachy, __Z20FourCharCodeToStringj,
                            __Z26AttachTrackIndexToFilePathNSt3__112basic_stringIcNS_11char_traitsIcEENS_9allocatorIcEEEEi,
                            __Z28CaseInsensitiveStringCompareRKNSt3__112basic_stringIcNS_11char_traitsIcEENS_9allocatorIcEEEES7_,
                            __Z4trimRNSt3__112basic_stringIcNS_11char_traitsIcEENS_9allocatorIcEEEE,
                            __Z5ltrimRNSt3__112basic_stringIcNS_11char_traitsIcEENS_9allocatorIcEEEE,
                            __Z5rtrimRNSt3__112basic_stringIcNS_11char_traitsIcEENS_9allocatorIcEEEE,
                            __Z9CMTimeNowv,
                            __ZN4roya11FrameDumper12OnInitializeEPNS_15PipelineContextE,
                            __ZN4roya11FrameDumper14OnDataReceivedEPNS_15PipelineContextEPNS_9FrameDataE,
                            __ZN4roya11FrameDumper6OnStopEPNS_15PipelineContextE,
                            __ZN4roya11FrameDumper7OnStartEPNS_15PipelineContextE,
                            __ZN4roya11FrameDumper9OnCleanupEPNS_15PipelineContextE,
                            __ZN4roya11MetadataSet7SetFromEP19NSMutableDictionary,
                            __ZN4roya11MetadataSet8CopyFromEP12NSDictionary,
                            __ZN4roya11MetadataSet8SetValueEP8NSStringP8NSObject,
                            __ZN4roya11MetadataSetC1EP19NSMutableDictionary,
                            __ZN4roya11MetadataSetC1Ev,
                            __ZN4roya11MetadataSetC2EP19NSMutableDictionary,
                            __ZN4roya11MetadataSetC2Ev,
                            __ZN4roya11MetadataSetD0Ev,
                            __ZN4roya11MetadataSetD1Ev,
                            __ZN4roya11MetadataSetD2Ev,
                            __ZN4roya11SessionBase10InitializeEPNS_7IObjectE,
                            __ZN4roya11SessionBase11AddPipelineENSt3__117basic_string_viewIcNS1_11char_traitsIcEEEENS1_10unique_ptrINS_15PipelineContextENS1_14default_deleteIS7_EEEENS1_10shared_ptrINS_4NodeEEE,
                            __ZN4roya11SessionBase12GetPipelinesEv,
                            __ZN4roya11SessionBase12RegisterNodeENSt3__110shared_ptrINS_4NodeEEE,
                            __ZN4roya11SessionBase15OnPipelineEventEPNS_8PipelineENS_13PipelineEventERK6CMTimeRKNS_6StatusE,
                            __ZN4roya11SessionBase16AddPipelineNodesENSt3__110shared_ptrINS_4NodeEEE,
                            __ZN4roya11SessionBase16GetCaptureConfigEv,
                            __ZN4roya11SessionBase16SynchronizeStateENS_13PipelineStateENS_12SessionStateE,
                            __ZN4roya11SessionBase17OnSessionFinishedERKNS_6StatusE,
                            __ZN4roya11SessionBase24SetSessionFinishCallbackEPFvPvRKNS_6StatusEES1_,
                            __ZN4roya11SessionBase4DumpEv,
                            __ZN4roya11SessionBase4StopEPNS_7IObjectE,
                            __ZN4roya11SessionBase5AbortEPNS_7IObjectERKNS_6StatusE,
                            __ZN4roya11SessionBase5StartEPNS_7IObjectE,
                            __ZN4roya11SessionBase7AddNodeENSt3__110shared_ptrINS_4NodeEEE,
                            __ZN4roya11SessionBase7CleanupEPNS_7IObjectE,
                            __ZN4roya11SessionBaseC1Ev,
                            __ZN4roya11SessionBaseC2Ev,
                            __ZN4roya11SessionBaseD0Ev,
                            __ZN4roya11SessionBaseD1Ev,
                            __ZN4roya11SessionBaseD2Ev,
                            __ZN4roya12DataProvider14OnStateChangedENS_17DataProviderStateE,
                            __ZN4roya12DataProvider6OnStopEPNS_15PipelineContextE,
                            __ZN4roya12DataProvider7OnStartEPNS_15PipelineContextE,
                            __ZN4roya12DataProvider9OnCleanupEPNS_15PipelineContextE,
                            __ZN4roya12FrameCounter10FitCounterEPS0_,
                            __ZN4roya12FrameCounter10FitCounterERNSt3__110unique_ptrIS0_NS1_14default_deleteIS0_EEEE,
                            __ZN4roya12FrameCounter10FitDividerEm,
                            __ZN4roya12FrameCounter10FrameCountEv,
                            __ZN4roya12FrameCounter12LastIntervalEv,
                            __ZN4roya12FrameCounter13LastTimestampEv,
                            __ZN4roya12FrameCounter14MedianIntervalEv,
                            __ZN4roya12FrameCounter14StartTimestampEv,
                            __ZN4roya12FrameCounter3FpsEv,
                            __ZN4roya12FrameCounter5ResetEv,
                            __ZN4roya12FrameCounter6FitFpsEd,
                            __ZN4roya12FrameCounter8NewFrameEd,
                            __ZN4roya12GraphBuilder10OnAddTrackERKNSt3__112basic_stringIcNS1_11char_traitsIcEENS1_9allocatorIcEEEERKNS1_13unordered_mapIS7_S7_NS1_4hashIS7_EENS1_8equal_toIS7_EENS5_INS1_4pairIS8_S7_EEEEEE,
                            __ZN4roya12GraphBuilder13CreateContextENS_9TrackTypeERKNSt3__112basic_stringIcNS2_11char_traitsIcEENS2_9allocatorIcEEEERKNS2_13unordered_mapIS8_S8_NS2_4hashIS8_EENS2_8equal_toIS8_EENS6_INS2_4pairIS9_S8_EEEEEE,
                            __ZN4roya12GraphBuilder14CreateDataSinkENS_8SinkTypeERKNSt3__112basic_stringIcNS2_11char_traitsIcEENS2_9allocatorIcEEEE,
                            __ZN4roya12GraphBuilder16EnsureToAddTrackERKNSt3__112basic_stringIcNS1_11char_traitsIcEENS1_9allocatorIcEEEERKNS1_13unordered_mapIS7_S7_NS1_4hashIS7_EENS1_8equal_toIS7_EENS5_INS1_4pairIS8_S7_EEEEEES9_,
                            __ZN4roya12GraphBuilder5BuildEPNS_7SessionE,
                            __ZN4roya12GraphBuilder8AddTrackERKNSt3__112basic_stringIcNS1_11char_traitsIcEENS1_9allocatorIcEEEERKNS1_13unordered_mapIS7_S7_NS1_4hashIS7_EENS1_8equal_toIS7_EENS5_INS1_4pairIS8_S7_EEEEEEPNS_15DataSourceProxyE,
                            __ZN4roya12GraphBuilderC2ENS_10DeviceTypeENS_8SinkTypeERKNSt3__112basic_stringIcNS3_11char_traitsIcEENS3_9allocatorIcEEEE,
                            __ZN4roya12MOVContainer10SetMOVSinkEPNS_7MOVSinkEPU28objcproto17OS_dispatch_queue8NSObject,
                            __ZN4roya12MOVContainer11SubmitFrameEPNS_15PipelineContextEPNS_9FrameDataE,
                            __ZN4roya12MOVContainer12SetStartTimeE6CMTime,
                            __ZN4roya12MOVContainer13DoSubmitFrameEPNS_8MOVTrackEPNS_9FrameDataE,
                            __ZN4roya12MOVContainer13RegisterTrackENSt3__110shared_ptrINS_8MOVTrackEEE,
                            __ZN4roya12MOVContainer13RegisterTrackEPNS_15PipelineContextE,
                            __ZN4roya12MOVContainer14GetTrackByNameERKNSt3__112basic_stringIcNS1_11char_traitsIcEENS1_9allocatorIcEEEE,
                            __ZN4roya12MOVContainer14OnStateChangedENS_14ContainerStateE,
                            __ZN4roya12MOVContainer14WaitTillFinishEy,
                            __ZN4roya12MOVContainer15InitializeTrackEPNS_15PipelineContextEPNS_9FrameDataE,
                            __ZN4roya12MOVContainer17DoInitializeTrackEPNS_8MOVTrackEPNS_9FrameDataE,
                            __ZN4roya12MOVContainer17TryStartContainerEv,
                            __ZN4roya12MOVContainer30SubmitFirstFramesFromAllTracksEv,
                            __ZN4roya12MOVContainer6CancelEv,
                            __ZN4roya12MOVContainer6CreateEPNS_13CaptureConfigERKNSt3__112basic_stringIcNS3_11char_traitsIcEENS3_9allocatorIcEEEE,
                            __ZN4roya12MOVContainer6FinishEv,
                            __ZN4roya12MOVContainer7CleanupEv,
                            __ZN4roya12MOVContainer7IsReadyEv,
                            __ZN4roya12MOVContainer9StartTimeEv,
                            __ZN4roya12MOVContainerC2Ev,
                            __ZN4roya12SessionProxy13CreateSessionERKNS0_7ConfigsE,
                            __ZN4roya13CVBufferFrame6BufferEv,
                            __ZN4roya13CVBufferFrame6RetainEv,
                            __ZN4roya13CVBufferFrame7ReleaseEv,
                            __ZN4roya13CVBufferFrame9SetBufferEP10__CVBuffer,
                            __ZN4roya13CVBufferFrameC1ERKS0_,
                            __ZN4roya13CVBufferFrameC1ExP10__CVBuffer6CMTimeS3_NS_11FrameStatusE,
                            __ZN4roya13CVBufferFrameC2ERKS0_,
                            __ZN4roya13CVBufferFrameC2ExP10__CVBuffer6CMTimeS3_NS_11FrameStatusE,
                            __ZN4roya13CVBufferFrameD0Ev,
                            __ZN4roya13CVBufferFrameD1Ev,
                            __ZN4roya13CVBufferFrameD2Ev,
                            __ZN4roya14AsyncOperation7ExecuteEPNS_15PipelineContextEPNS_9FrameDataE,
                            __ZN4roya14AsyncOperationC2Em,
                            __ZN4roya14AudioFrameData12SampleBufferEv,
                            __ZN4roya14AudioFrameData15SetSampleBufferEP20opaqueCMSampleBuffer,
                            __ZN4roya14AudioFrameData6RetainEv,
                            __ZN4roya14AudioFrameData7ReleaseEv,
                            __ZN4roya14AudioFrameDataC1ERKS0_,
                            __ZN4roya14AudioFrameDataC1ExP20opaqueCMSampleBuffer6CMTimeNS_11FrameStatusE,
                            __ZN4roya14AudioFrameDataC2ERKS0_,
                            __ZN4roya14AudioFrameDataC2ExP20opaqueCMSampleBuffer6CMTimeNS_11FrameStatusE,
                            __ZN4roya14AudioFrameDataD0Ev,
                            __ZN4roya14AudioFrameDataD1Ev,
                            __ZN4roya14AudioFrameDataD2Ev,
                            __ZN4roya14VideoFrameData11FrameBufferEv,
                            __ZN4roya14VideoFrameData14SetFrameBufferEP10__CVBuffer,
                            __ZN4roya14VideoFrameData26ApplyMetadataToFrameBufferEv,
                            __ZN4roya14VideoFrameData6RetainEv,
                            __ZN4roya14VideoFrameData7ReleaseEv,
                            __ZN4roya14VideoFrameDataC1ERKS0_,
                            __ZN4roya14VideoFrameDataC1ExP10__CVBuffer6CMTimeS3_NS_11FrameStatusE,
                            __ZN4roya14VideoFrameDataC2ERKS0_,
                            __ZN4roya14VideoFrameDataC2ExP10__CVBuffer6CMTimeS3_NS_11FrameStatusE,
                            __ZN4roya14VideoFrameDataD0Ev,
                            __ZN4roya14VideoFrameDataD1Ev,
                            __ZN4roya14VideoFrameDataD2Ev,
                            __ZN4roya15DataSourceProxy6CreateERKNSt3__112basic_stringIcNS1_11char_traitsIcEENS1_9allocatorIcEEEENS_9TrackTypeEPvPFbSB_NS_16NotificationTypeEE,
                            __ZN4roya15DumpPixelBufferEP10__CVBuffer,
                            __ZN4roya15PipelineContext11GetPipelineEv,
                            __ZN4roya15PipelineContext12GetPrevFrameEv,
                            __ZN4roya15PipelineContext12SetPrevFrameENSt3__110shared_ptrINS_9FrameDataEEE,
                            __ZN4roya15PipelineContext12SetTrackNameERKNSt3__112basic_stringIcNS1_11char_traitsIcEENS1_9allocatorIcEEEE,
                            __ZN4roya15PipelineContext16GetCaptureConfigEv,
                            __ZN4roya15PipelineContext16SetCaptureConfigENSt3__110shared_ptrINS_13CaptureConfigEEE,
                            __ZN4roya15PipelineContext16SetOwnerPipelineEPNS_8PipelineE,
                            __ZN4roya15PipelineContext17SetPrevFrameIndexEx,
                            __ZN4roya15PipelineContext19GetFrameDropMonitorEv,
                            __ZN4roya15PipelineContext22GetSupportedPropertiesEv,
                            __ZN4roya15PipelineContext5AbortEPNS_7IObjectERKNS_6StatusE,
                            __ZN4roya15PipelineContext8MetadataEv,
                            __ZN4roya15PipelineContextC1ENS_9TrackTypeERKNSt3__112basic_stringIcNS2_11char_traitsIcEENS2_9allocatorIcEEEENS_16PipelineExecModeE,
                            __ZN4roya15PipelineContextC1ENS_9TrackTypeERKNSt3__112basic_stringIcNS2_11char_traitsIcEENS2_9allocatorIcEEEERKNS2_13unordered_mapIS8_S8_NS2_4hashIS8_EENS2_8equal_toIS8_EENS6_INS2_4pairIS9_S8_EEEEEENS_16PipelineExecModeE,
                            __ZN4roya15PipelineContextC2ENS_9TrackTypeERKNSt3__112basic_stringIcNS2_11char_traitsIcEENS2_9allocatorIcEEEENS_16PipelineExecModeE,
                            __ZN4roya15PipelineContextC2ENS_9TrackTypeERKNSt3__112basic_stringIcNS2_11char_traitsIcEENS2_9allocatorIcEEEERKNS2_13unordered_mapIS8_S8_NS2_4hashIS8_EENS2_8equal_toIS8_EENS6_INS2_4pairIS9_S8_EEEEEENS_16PipelineExecModeE,
                            __ZN4roya15PipelineContextD0Ev,
                            __ZN4roya15PipelineContextD1Ev,
                            __ZN4roya15PipelineContextD2Ev,
                            __ZN4roya15SimpleFrameDataC1ERKS0_,
                            __ZN4roya15SimpleFrameDataC1Ev,
                            __ZN4roya15SimpleFrameDataC1ExbPKvm6CMTimeS3_NS_11FrameStatusE,
                            __ZN4roya15SimpleFrameDataC2ERKS0_,
                            __ZN4roya15SimpleFrameDataC2Ev,
                            __ZN4roya15SimpleFrameDataC2ExbPKvm6CMTimeS3_NS_11FrameStatusE,
                            __ZN4roya15SimpleFrameDataD0Ev,
                            __ZN4roya15SimpleFrameDataD1Ev,
                            __ZN4roya15SimpleFrameDataD2Ev,
                            __ZN4roya16CreateMOVKitSinkERKNSt3__112basic_stringIcNS0_11char_traitsIcEENS0_9allocatorIcEEEE,
                            __ZN4roya16FrameDropMonitor12CheckSinkFpsEd,
                            __ZN4roya16FrameDropMonitor12NewSinkFrameEd,
                            __ZN4roya16FrameDropMonitor14CheckSourceFpsEd,
                            __ZN4roya16FrameDropMonitor14NewSourceFrameEd,
                            __ZN4roya16FrameDropMonitorC1Ev,
                            __ZN4roya16FrameDropMonitorC2Ev,
                            __ZN4roya16FrameDropMonitorD1Ev,
                            __ZN4roya16FrameDropMonitorD2Ev,
                            __ZN4roya16SessionProxyImpl10BuildGraphEv,
                            __ZN4roya16SessionProxyImpl12AbortSessionERKNS_6StatusE,
                            __ZN4roya16SessionProxyImpl24SetSessionFinishCallbackEPFvPvRKNS_6StatusEES1_,
                            __ZN4roya16SessionProxyImpl28defaultSessionFinishCallbackEPvRKNS_6StatusE,
                            __ZN4roya16SessionProxyImpl29SetSessionFinishCallbackSwiftEPFvPvNS_6Status4CodeEPKcES1_,
                            __ZN4roya16SessionProxyImpl4StopEv,
                            __ZN4roya16SessionProxyImpl5StartEx,
                            __ZN4roya16SessionProxyImpl8AddTrackERKNSt3__112basic_stringIcNS1_11char_traitsIcEENS1_9allocatorIcEEEERKNS1_13unordered_mapIS7_S7_NS1_4hashIS7_EENS1_8equal_toIS7_EENS5_INS1_4pairIS8_S7_EEEEEE,
                            __ZN4roya16SessionProxyImpl8AddTrackERKNSt3__112basic_stringIcNS1_11char_traitsIcEENS1_9allocatorIcEEEERKNS1_13unordered_mapIS7_S7_NS1_4hashIS7_EENS1_8equal_toIS7_EENS5_INS1_4pairIS8_S7_EEEEEEPNS_15DataSourceProxyE,
                            __ZN4roya16SessionProxyImplC1ERKNS_12SessionProxy7ConfigsE,
                            __ZN4roya16SessionProxyImplC2ERKNS_12SessionProxy7ConfigsE,
                            __ZN4roya16SessionProxyImplD0Ev,
                            __ZN4roya16SessionProxyImplD1Ev,
                            __ZN4roya16SessionProxyImplD2Ev,
                            __ZN4roya17getOutputFilePathEv,
                            __ZN4roya18GraphBuilderForiOS14CreatePipelineERKNS_9TrackInfoENS_9TrackTypeENSt3__110shared_ptrINS_8DataSinkEEE,
                            __ZN4roya18GraphBuilderForiOS18CreateDataProviderERKNS_9TrackInfoENS_9TrackTypeE,
                            __ZN4roya18GraphBuilderForiOSC1ENS_10DeviceTypeENS_8SinkTypeERKNSt3__112basic_stringIcNS3_11char_traitsIcEENS3_9allocatorIcEEEE,
                            __ZN4roya18GraphBuilderForiOSC2ENS_10DeviceTypeENS_8SinkTypeERKNSt3__112basic_stringIcNS3_11char_traitsIcEENS3_9allocatorIcEEEE,
                            __ZN4roya19DataSourceProxyImpl12GetTrackTypeEv,
                            __ZN4roya19DataSourceProxyImpl12OnInitializeEv,
                            __ZN4roya19DataSourceProxyImpl15GetDataProviderEv,
                            __ZN4roya19DataSourceProxyImpl15GetDataReceiverEv,
                            __ZN4roya19DataSourceProxyImpl6OnStopEv,
                            __ZN4roya19DataSourceProxyImpl7OnStartEv,
                            __ZN4roya19DataSourceProxyImplC1ERKNSt3__112basic_stringIcNS1_11char_traitsIcEENS1_9allocatorIcEEEENS_9TrackTypeEPvPFbSB_NS_16NotificationTypeEE,
                            __ZN4roya19DataSourceProxyImplC2ERKNSt3__112basic_stringIcNS1_11char_traitsIcEENS1_9allocatorIcEEEENS_9TrackTypeEPvPFbSB_NS_16NotificationTypeEE,
                            __ZN4roya19DataSourceProxyImplD0Ev,
                            __ZN4roya19DataSourceProxyImplD1Ev,
                            __ZN4roya19DataSourceProxyImplD2Ev,
                            __ZN4roya20AudioPipelineContextC1ERKNSt3__112basic_stringIcNS1_11char_traitsIcEENS1_9allocatorIcEEEE,
                            __ZN4roya20AudioPipelineContextC1ERKNSt3__112basic_stringIcNS1_11char_traitsIcEENS1_9allocatorIcEEEERKNS1_13unordered_mapIS7_S7_NS1_4hashIS7_EENS1_8equal_toIS7_EENS5_INS1_4pairIS8_S7_EEEEEE,
                            __ZN4roya20AudioPipelineContextC2ERKNSt3__112basic_stringIcNS1_11char_traitsIcEENS1_9allocatorIcEEEE,
                            __ZN4roya20AudioPipelineContextC2ERKNSt3__112basic_stringIcNS1_11char_traitsIcEENS1_9allocatorIcEEEERKNS1_13unordered_mapIS7_S7_NS1_4hashIS7_EENS1_8equal_toIS7_EENS5_INS1_4pairIS8_S7_EEEEEE,
                            __ZN4roya20AudioPipelineContextD0Ev,
                            __ZN4roya20AudioPipelineContextD1Ev,
                            __ZN4roya20AudioPipelineContextD2Ev,
                            __ZN4roya20ExternalDataProvider12OnInitializeEPNS_13IDataReceiverEPNS_15PipelineContextE,
                            __ZN4roya20ExternalDataProvider13GetDataSourceEv,
                            __ZN4roya20ExternalDataProvider14OnReceivedDataEyyPKvy,
                            __ZN4roya20ExternalDataProvider14OnStateChangedENS_17DataProviderStateE,
                            __ZN4roya20ExternalDataProvider21OnReceivedPixelBufferEyyP10__CVBuffer,
                            __ZN4roya20ExternalDataProvider27OnReceivedAudioSampleBufferEyP20opaqueCMSampleBuffer,
                            __ZN4roya20ExternalDataProvider6OnStopEPNS_15PipelineContextE,
                            __ZN4roya20ExternalDataProvider7OnStartEPNS_15PipelineContextE,
                            __ZN4roya20ExternalDataProvider9OnCleanupEPNS_15PipelineContextE,
                            __ZN4roya20ExternalDataProviderC1ERKNSt3__112basic_stringIcNS1_11char_traitsIcEENS1_9allocatorIcEEEEPNS_15DataSourceProxyE,
                            __ZN4roya20ExternalDataProviderC2ERKNSt3__112basic_stringIcNS1_11char_traitsIcEENS1_9allocatorIcEEEEPNS_15DataSourceProxyE,
                            __ZN4roya20ExternalDataProviderD0Ev,
                            __ZN4roya20ExternalDataProviderD1Ev,
                            __ZN4roya20ExternalDataProviderD2Ev,
                            __ZN4roya20VideoPipelineContext10SetBitRateEm,
                            __ZN4roya20VideoPipelineContext10SetEncoderERKNSt3__112basic_stringIcNS1_11char_traitsIcEENS1_9allocatorIcEEEE,
                            __ZN4roya20VideoPipelineContext10SetQualityEd,
                            __ZN4roya20VideoPipelineContext10SetScalingEd,
                            __ZN4roya20VideoPipelineContext14encoderToCodecEv,
                            __ZN4roya20VideoPipelineContext17SetCompressFactorEd,
                            __ZN4roya20VideoPipelineContext22GetSupportedPropertiesEv,
                            __ZN4roya20VideoPipelineContextC1ERKNSt3__112basic_stringIcNS1_11char_traitsIcEENS1_9allocatorIcEEEERKNS1_13unordered_mapIS7_S7_NS1_4hashIS7_EENS1_8equal_toIS7_EENS5_INS1_4pairIS8_S7_EEEEEE,
                            __ZN4roya20VideoPipelineContextC1ERKNSt3__112basic_stringIcNS1_11char_traitsIcEENS1_9allocatorIcEEEEjddd,
                            __ZN4roya20VideoPipelineContextC2ERKNSt3__112basic_stringIcNS1_11char_traitsIcEENS1_9allocatorIcEEEERKNS1_13unordered_mapIS7_S7_NS1_4hashIS7_EENS1_8equal_toIS7_EENS5_INS1_4pairIS8_S7_EEEEEE,
                            __ZN4roya20VideoPipelineContextC2ERKNSt3__112basic_stringIcNS1_11char_traitsIcEENS1_9allocatorIcEEEEjddd,
                            __ZN4roya20VideoPipelineContextD0Ev,
                            __ZN4roya20VideoPipelineContextD1Ev,
                            __ZN4roya20VideoPipelineContextD2Ev,
                            __ZN4roya31RegularFrameratePipelineContext12SetFramerateEd,
                            __ZN4roya31RegularFrameratePipelineContext22GetSupportedPropertiesEv,
                            __ZN4roya31RegularFrameratePipelineContextC1ENS_9TrackTypeERKNSt3__112basic_stringIcNS2_11char_traitsIcEENS2_9allocatorIcEEEERKNS2_13unordered_mapIS8_S8_NS2_4hashIS8_EENS2_8equal_toIS8_EENS6_INS2_4pairIS9_S8_EEEEEE,
                            __ZN4roya31RegularFrameratePipelineContextC1ENS_9TrackTypeERKNSt3__112basic_stringIcNS2_11char_traitsIcEENS2_9allocatorIcEEEEd,
                            __ZN4roya31RegularFrameratePipelineContextC2ENS_9TrackTypeERKNSt3__112basic_stringIcNS2_11char_traitsIcEENS2_9allocatorIcEEEERKNS2_13unordered_mapIS8_S8_NS2_4hashIS8_EENS2_8equal_toIS8_EENS6_INS2_4pairIS9_S8_EEEEEE,
                            __ZN4roya31RegularFrameratePipelineContextC2ENS_9TrackTypeERKNSt3__112basic_stringIcNS2_11char_traitsIcEENS2_9allocatorIcEEEEd,
                            __ZN4roya31RegularFrameratePipelineContextD0Ev,
                            __ZN4roya31RegularFrameratePipelineContextD1Ev,
                            __ZN4roya31RegularFrameratePipelineContextD2Ev,
                            __ZN4roya4Node12AddInputNodeEPS0_,
                            __ZN4roya4Node13AddOutputNodeENSt3__110shared_ptrIS0_EE,
                            __ZN4roya4Node13GetInputNodesEv,
                            __ZN4roya4Node14GetOutputNodesEv,
                            __ZN4roya4Node22GetSupportedPropertiesEv,
                            __ZN4roya4Node9ConnectToENSt3__110shared_ptrIS0_EE,
                            __ZN4roya4NodeC1Ev, __ZN4roya4NodeC2Ev,
                            __ZN4roya4impl10checkOrderEPKyPi,
                            __ZN4roya4impl11printSampleEPNS0_20FastPathInstanceDataEP25_SpuFastPathComboAxisData,
                            __ZN4roya4impl13AVFDataSource11stopSessionEv,
                            __ZN4roya4impl13AVFDataSource12startSessionEv,
                            __ZN4roya4impl13AVFDataSource14OnStateChangedENS_17DataProviderStateE,
                            __ZN4roya4impl13AVFDataSource18initializeProviderERKNS0_15AVFDataProviderE,
                            __ZN4roya4impl13AVFDataSourceC1Ev,
                            __ZN4roya4impl13AVFDataSourceC2Ev,
                            __ZN4roya4impl13AVFDataSourceD0Ev,
                            __ZN4roya4impl13AVFDataSourceD1Ev,
                            __ZN4roya4impl13AVFDataSourceD2Ev,
                            __ZN4roya4impl13PolarisSource12InstanceDataEv,
                            __ZN4roya4impl13PolarisSource12SetupContextEv,
                            __ZN4roya4impl13PolarisSource18OnGraphInitializedEPNS0_19PolarisInstanceDataE,
                            __ZN4roya4impl13PolarisSource19GetDefaultFramerateEv,
                            __ZN4roya4impl13PolarisSource19HasRegularFramerateEv,
                            __ZN4roya4impl13PolarisSource22GetSupportedPropertiesEv,
                            __ZN4roya4impl13PolarisSource24maybeDeserializeMetadataEPKv,
                            __ZN4roya4impl13PolarisSource7CleanupEPNS0_19PolarisInstanceDataE,
                            __ZN4roya4impl13PolarisSourceC2EPNS_15PipelineContextEPNS_13IDataReceiverEPNS0_19PolarisInstanceDataE,
                            __ZN4roya4impl13PolarisSourceD0Ev,
                            __ZN4roya4impl13PolarisSourceD1Ev,
                            __ZN4roya4impl13PolarisSourceD2Ev,
                            __ZN4roya4impl13kDATAKEY_RSSIE,
                            __ZN4roya4impl13processPacketEPvPNS0_23DoAPPluginAudioProviderEjx,
                            __ZN4roya4impl14MOVKitIMUTrack10InitializeEPNS_12MOVContainerEPNS_9FrameDataE,
                            __ZN4roya4impl14MOVKitIMUTrack11SubmitFrameEPNS_12MOVContainerEPNS_9FrameDataE,
                            __ZN4roya4impl14MOVKitIMUTrack16FastPathTimeSyncEv,
                            __ZN4roya4impl14MOVKitIMUTrack7CleanupEv,
                            __ZN4roya4impl14MOVKitIMUTrackC1EPNS_15PipelineContextERKNSt3__112basic_stringIcNS4_11char_traitsIcEENS4_9allocatorIcEEEE,
                            __ZN4roya4impl14MOVKitIMUTrackC2EPNS_15PipelineContextERKNSt3__112basic_stringIcNS4_11char_traitsIcEENS4_9allocatorIcEEEE,
                            __ZN4roya4impl14kDATAKEY_BSSIDE,
                            __ZN4roya4impl15AVFDataProvider12OnInitializeEPNS_13IDataReceiverEPNS_15PipelineContextE,
                            __ZN4roya4impl15AVFDataProvider6OnStopEPNS_15PipelineContextE,
                            __ZN4roya4impl15AVFDataProvider7OnStartEPNS_15PipelineContextE,
                            __ZN4roya4impl15AVFDataProvider9OnCleanupEPNS_15PipelineContextE,
                            __ZN4roya4impl15AVFDataProviderC1ENS_9TrackTypeENSt3__110shared_ptrINS0_13AVFDataSourceEEE,
                            __ZN4roya4impl15AVFDataProviderC2ENS_9TrackTypeENSt3__110shared_ptrINS0_13AVFDataSourceEEE,
                            __ZN4roya4impl15AVFDataProviderD0Ev,
                            __ZN4roya4impl15AVFDataProviderD1Ev,
                            __ZN4roya4impl15AVFDataProviderD2Ev,
                            __ZN4roya4impl15MOVKitContainer11CreateTrackEPNS_15PipelineContextE,
                            __ZN4roya4impl15MOVKitContainer16DoStartContainerEv,
                            __ZN4roya4impl15MOVKitContainer16SetWriterThreadsEP18MIOWriterInterfacem,
                            __ZN4roya4impl15MOVKitContainer8DoCancelEv,
                            __ZN4roya4impl15MOVKitContainer8DoCreateEPNS_13CaptureConfigERKNSt3__112basic_stringIcNS4_11char_traitsIcEENS4_9allocatorIcEEEE,
                            __ZN4roya4impl15MOVKitContainer8DoFinishEv,
                            __ZN4roya4impl15MOVKitContainerC1Ev,
                            __ZN4roya4impl15MOVKitContainerC2Ev,
                            __ZN4roya4impl15MOVKitWiFiTrack10InitializeEPNS_12MOVContainerEPNS_9FrameDataE,
                            __ZN4roya4impl15MOVKitWiFiTrack11SubmitFrameEPNS_12MOVContainerEPNS_9FrameDataE,
                            __ZN4roya4impl15MOVKitWiFiTrack7CleanupEv,
                            __ZN4roya4impl15MOVKitWiFiTrackC1EPNS_15PipelineContextERKNSt3__112basic_stringIcNS4_11char_traitsIcEENS4_9allocatorIcEEEE,
                            __ZN4roya4impl15MOVKitWiFiTrackC2EPNS_15PipelineContextERKNSt3__112basic_stringIcNS4_11char_traitsIcEENS4_9allocatorIcEEEE,
                            __ZN4roya4impl15PolarisProvider12InstanceDataEv,
                            __ZN4roya4impl15PolarisProvider12OnInitializeEPNS_13IDataReceiverEPNS_15PipelineContextE,
                            __ZN4roya4impl15PolarisProvider22GetSupportedPropertiesEv,
                            __ZN4roya4impl15PolarisProvider6OnStopEPNS_15PipelineContextE,
                            __ZN4roya4impl15PolarisProvider7OnStartEPNS_15PipelineContextE,
                            __ZN4roya4impl15PolarisProvider9OnCleanupEPNS_15PipelineContextE,
                            __ZN4roya4impl15PolarisProviderC1Ev,
                            __ZN4roya4impl15PolarisProviderC2Ev,
                            __ZN4roya4impl15PolarisProviderD0Ev,
                            __ZN4roya4impl15PolarisProviderD1Ev,
                            __ZN4roya4impl15PolarisProviderD2Ev,
                            __ZN4roya4impl15TimeSyncService11NullClockIdEv,
                            __ZN4roya4impl15TimeSyncService16sampleDomainTimeEy,
                            __ZN4roya4impl15TimeSyncService4initEy,
                            __ZN4roya4impl15TimeSyncService5ErrorC1ERKNSt3__112basic_stringIcNS3_11char_traitsIcEENS3_9allocatorIcEEEE,
                            __ZN4roya4impl15TimeSyncService5ErrorC2ERKNSt3__112basic_stringIcNS3_11char_traitsIcEENS3_9allocatorIcEEEE,
                            __ZN4roya4impl15TimeSyncServiceC1Ev,
                            __ZN4roya4impl15TimeSyncServiceC2Ev,
                            __ZN4roya4impl15TimeSyncServiceD1Ev,
                            __ZN4roya4impl15TimeSyncServiceD2Ev,
                            __ZN4roya4impl15initializeAudioEP16AVCaptureSessionPU15__autoreleasingP15AVCaptureOutputPU15__autoreleasingP39RYA_AVCaptureOutputSampleBufferDelegate,
                            __ZN4roya4impl15initializeVideoEPNS_15PipelineContextEP16AVCaptureSessionPU15__autoreleasingP15AVCaptureOutputPU15__autoreleasingP39RYA_AVCaptureOutputSampleBufferDelegate,
                            __ZN4roya4impl16LocationProvider12OnInitializeEPNS_13IDataReceiverEPNS_15PipelineContextE,
                            __ZN4roya4impl16LocationProvider6OnStopEPNS_15PipelineContextE,
                            __ZN4roya4impl16LocationProvider7OnStartEPNS_15PipelineContextE,
                            __ZN4roya4impl16LocationProvider9OnCleanupEPNS_15PipelineContextE,
                            __ZN4roya4impl16LocationProviderC1Ev,
                            __ZN4roya4impl16LocationProviderC2Ev,
                            __ZN4roya4impl16LocationProviderD0Ev,
                            __ZN4roya4impl16LocationProviderD1Ev,
                            __ZN4roya4impl16LocationProviderD2Ev,
                            __ZN4roya4impl16MOVKitAudioTrack10InitializeEPNS_12MOVContainerEPNS_9FrameDataE,
                            __ZN4roya4impl16MOVKitAudioTrack11SubmitFrameEPNS_12MOVContainerEPNS_9FrameDataE,
                            __ZN4roya4impl16MOVKitAudioTrack7CleanupEv,
                            __ZN4roya4impl16MOVKitAudioTrackC1EPNS_15PipelineContextERKNSt3__112basic_stringIcNS4_11char_traitsIcEENS4_9allocatorIcEEEE,
                            __ZN4roya4impl16MOVKitAudioTrackC2EPNS_15PipelineContextERKNSt3__112basic_stringIcNS4_11char_traitsIcEENS4_9allocatorIcEEEE,
                            __ZN4roya4impl16MOVKitVideoTrack11SubmitFrameEPNS_12MOVContainerEPNS_9FrameDataE,
                            __ZN4roya4impl16MOVKitVideoTrack12DoInitializeEPNS_12MOVContainerEPNS_9FrameDataE,
                            __ZN4roya4impl16MOVKitVideoTrack9DoCleanupEv,
                            __ZN4roya4impl16MOVKitVideoTrackC1EPNS_15PipelineContextERKNSt3__112basic_stringIcNS4_11char_traitsIcEENS4_9allocatorIcEEEE,
                            __ZN4roya4impl16MOVKitVideoTrackC2EPNS_15PipelineContextERKNSt3__112basic_stringIcNS4_11char_traitsIcEENS4_9allocatorIcEEEE,
                            __ZN4roya4impl16PolarisIMUSource10CreateTaskEPNS0_19PolarisInstanceDataE,
                            __ZN4roya4impl16PolarisIMUSource12DispatchDataEP17ps_resource_arrayS3_,
                            __ZN4roya4impl16PolarisIMUSource15InitializeGraphEPNS0_19PolarisInstanceDataE,
                            __ZN4roya4impl16PolarisIMUSourceC1EPNS_15PipelineContextEPNS_13IDataReceiverEPNS0_19PolarisInstanceDataE,
                            __ZN4roya4impl16PolarisIMUSourceC2EPNS_15PipelineContextEPNS_13IDataReceiverEPNS0_19PolarisInstanceDataE,
                            __ZN4roya4impl16PolarisIMUSourceD0Ev,
                            __ZN4roya4impl16PolarisIMUSourceD1Ev,
                            __ZN4roya4impl16PolarisIMUSourceD2Ev,
                            __ZN4roya4impl16RawAudioProvider12DoInitializeEv,
                            __ZN4roya4impl16RawAudioProvider12InstanceDataEv,
                            __ZN4roya4impl16RawAudioProvider12OnInitializeEPNS_13IDataReceiverEPNS_15PipelineContextE,
                            __ZN4roya4impl16RawAudioProvider6OnStopEPNS_15PipelineContextE,
                            __ZN4roya4impl16RawAudioProvider7OnStartEPNS_15PipelineContextE,
                            __ZN4roya4impl16RawAudioProvider9OnCleanupEPNS_15PipelineContextE,
                            __ZN4roya4impl16RawAudioProviderC1Ev,
                            __ZN4roya4impl16RawAudioProviderC2Ev,
                            __ZN4roya4impl16RawAudioProviderD0Ev,
                            __ZN4roya4impl16RawAudioProviderD1Ev,
                            __ZN4roya4impl16RawAudioProviderD2Ev,
                            __ZN4roya4impl16TimeSyncProvider12OnInitializeEPNS_13IDataReceiverEPNS_15PipelineContextE,
                            __ZN4roya4impl16TimeSyncProvider12onTimerEventEv,
                            __ZN4roya4impl16TimeSyncProvider16onTimerCancelledEv,
                            __ZN4roya4impl16TimeSyncProvider22GetSupportedPropertiesEv,
                            __ZN4roya4impl16TimeSyncProvider6OnStopEPNS_15PipelineContextE,
                            __ZN4roya4impl16TimeSyncProvider7OnStartEPNS_15PipelineContextE,
                            __ZN4roya4impl16TimeSyncProvider9OnCleanupEPNS_15PipelineContextE,
                            __ZN4roya4impl16TimeSyncProviderC1Ev,
                            __ZN4roya4impl16TimeSyncProviderC2Ev,
                            __ZN4roya4impl16TimeSyncProviderD0Ev,
                            __ZN4roya4impl16TimeSyncProviderD1Ev,
                            __ZN4roya4impl16TimeSyncProviderD2Ev,
                            __ZN4roya4impl16WiFiDataProvider12OnInitializeEPNS_13IDataReceiverEPNS_15PipelineContextE,
                            __ZN4roya4impl16WiFiDataProvider22GetSupportedPropertiesEv,
                            __ZN4roya4impl16WiFiDataProvider6OnStopEPNS_15PipelineContextE,
                            __ZN4roya4impl16WiFiDataProvider7OnStartEPNS_15PipelineContextE,
                            __ZN4roya4impl16WiFiDataProvider9OnCleanupEPNS_15PipelineContextE,
                            __ZN4roya4impl16WiFiDataProviderC1Ev,
                            __ZN4roya4impl16WiFiDataProviderC2Ev,
                            __ZN4roya4impl16WiFiDataProviderD0Ev,
                            __ZN4roya4impl16WiFiDataProviderD1Ev,
                            __ZN4roya4impl16WiFiDataProviderD2Ev,
                            __ZN4roya4impl16kDATAKEY_CHANNELE,
                            __ZN4roya4impl17AudioQueueWrapper11getPropertyEjPvPj,
                            __ZN4roya4impl17AudioQueueWrapper14allocateBufferEj,
                            __ZN4roya4impl17AudioQueueWrapper18enqueueInputBufferERNS0_23AudioQueueBufferWrapperE,
                            __ZN4roya4impl17AudioQueueWrapper20getStreamDescriptionER27AudioStreamBasicDescription,
                            __ZN4roya4impl17AudioQueueWrapper4stopEb,
                            __ZN4roya4impl17AudioQueueWrapper5startEPK14AudioTimeStamp,
                            __ZN4roya4impl17AudioQueueWrapperC1EPK27AudioStreamBasicDescriptionPFvPvP16OpaqueAudioQueueP16AudioQueueBufferPK14AudioTimeStampjPK28AudioStreamPacketDescriptionES5_P11__CFRunLoopPK10__CFStringjb,
                            __ZN4roya4impl17AudioQueueWrapperC2EPK27AudioStreamBasicDescriptionPFvPvP16OpaqueAudioQueueP16AudioQueueBufferPK14AudioTimeStampjPK28AudioStreamPacketDescriptionES5_P11__CFRunLoopPK10__CFStringjb,
                            __ZN4roya4impl17AudioQueueWrapperD1Ev,
                            __ZN4roya4impl17AudioQueueWrapperD2Ev,
                            __ZN4roya4impl17HIDDeviceProvider12OnInitializeEPNS_13IDataReceiverEPNS_15PipelineContextE,
                            __ZN4roya4impl17HIDDeviceProvider6OnStopEPNS_15PipelineContextE,
                            __ZN4roya4impl17HIDDeviceProvider7OnStartEPNS_15PipelineContextE,
                            __ZN4roya4impl17HIDDeviceProvider9HIDConfigEv,
                            __ZN4roya4impl17HIDDeviceProvider9OnCleanupEPNS_15PipelineContextE,
                            __ZN4roya4impl17HIDDeviceProviderC1Ev,
                            __ZN4roya4impl17HIDDeviceProviderC2Ev,
                            __ZN4roya4impl17HIDDeviceProviderD0Ev,
                            __ZN4roya4impl17HIDDeviceProviderD1Ev,
                            __ZN4roya4impl17HIDDeviceProviderD2Ev,
                            __ZN4roya4impl17MOVKitCameraTrack10InitializeEPNS_12MOVContainerEPNS_9FrameDataE,
                            __ZN4roya4impl17MOVKitCameraTrack7CleanupEv,
                            __ZN4roya4impl17MOVKitCameraTrackC2EPNS_15PipelineContextENS_12MOVTrackTypeERKNSt3__112basic_stringIcNS5_11char_traitsIcEENS5_9allocatorIcEEEE,
                            __ZN4roya4impl17MOVKitCameraTrackD0Ev,
                            __ZN4roya4impl17MOVKitCameraTrackD1Ev,
                            __ZN4roya4impl17MOVKitCameraTrackD2Ev,
                            __ZN4roya4impl17MOVKitDesgenTrack10InitializeEPNS_12MOVContainerEPNS_9FrameDataE,
                            __ZN4roya4impl17MOVKitDesgenTrack11SubmitFrameEPNS_12MOVContainerEPNS_9FrameDataE,
                            __ZN4roya4impl17MOVKitDesgenTrack7CleanupEv,
                            __ZN4roya4impl17MOVKitDesgenTrackC1EPNS_15PipelineContextERKNSt3__112basic_stringIcNS4_11char_traitsIcEENS4_9allocatorIcEEEE,
                            __ZN4roya4impl17MOVKitDesgenTrackC2EPNS_15PipelineContextERKNSt3__112basic_stringIcNS4_11char_traitsIcEENS4_9allocatorIcEEEE,
                            __ZN4roya4impl17PolarisDataSource10CreateTaskEPNS0_19PolarisInstanceDataE,
                            __ZN4roya4impl17PolarisDataSource12DispatchDataEP17ps_resource_arrayS3_,
                            __ZN4roya4impl17PolarisDataSource15InitializeGraphEPNS0_19PolarisInstanceDataE,
                            __ZN4roya4impl17PolarisDataSourceC1EPNS_15PipelineContextEPNS_13IDataReceiverEPNS0_19PolarisInstanceDataE,
                            __ZN4roya4impl17PolarisDataSourceC2EPNS_15PipelineContextEPNS_13IDataReceiverEPNS0_19PolarisInstanceDataE,
                            __ZN4roya4impl17PolarisDataSourceD0Ev,
                            __ZN4roya4impl17PolarisDataSourceD1Ev,
                            __ZN4roya4impl17PolarisDataSourceD2Ev,
                            __ZN4roya4impl18PolarisCameraFrameC1ERKS1_,
                            __ZN4roya4impl18PolarisCameraFrameC1ExP10__CVBuffer6CMTimeS4_NS_11FrameStatusE,
                            __ZN4roya4impl18PolarisCameraFrameC2ERKS1_,
                            __ZN4roya4impl18PolarisCameraFrameC2ExP10__CVBuffer6CMTimeS4_NS_11FrameStatusE,
                            __ZN4roya4impl18PolarisCameraFrameD0Ev,
                            __ZN4roya4impl18PolarisCameraFrameD1Ev,
                            __ZN4roya4impl18PolarisCameraFrameD2Ev,
                            __ZN4roya4impl19MOVKitMetadataTrack10InitializeEPNS_12MOVContainerEPNS_9FrameDataE,
                            __ZN4roya4impl19MOVKitMetadataTrack11SubmitFrameEPNS_12MOVContainerEPNS_9FrameDataE,
                            __ZN4roya4impl19MOVKitMetadataTrack7CleanupEv,
                            __ZN4roya4impl19MOVKitMetadataTrackC1EPNS_15PipelineContextERKNSt3__112basic_stringIcNS4_11char_traitsIcEENS4_9allocatorIcEEEE,
                            __ZN4roya4impl19MOVKitMetadataTrackC2EPNS_15PipelineContextERKNSt3__112basic_stringIcNS4_11char_traitsIcEENS4_9allocatorIcEEEE,
                            __ZN4roya4impl19PolarisCameraSource10CreateTaskEPNS0_19PolarisInstanceDataE,
                            __ZN4roya4impl19PolarisCameraSource12DispatchDataEP17ps_resource_arrayS3_,
                            __ZN4roya4impl19PolarisCameraSource12SetupContextEv,
                            __ZN4roya4impl19PolarisCameraSource15InitializeGraphEPNS0_19PolarisInstanceDataE,
                            __ZN4roya4impl19PolarisCameraSource22GetSupportedPropertiesEv,
                            __ZN4roya4impl19PolarisCameraSource35ConvertSourceTimeToMachAbsoluteTimeERy,
                            __ZN4roya4impl19PolarisCameraSourceC1EPNS_15PipelineContextEPNS_13IDataReceiverEPNS0_19PolarisInstanceDataE,
                            __ZN4roya4impl19PolarisCameraSourceC2EPNS_15PipelineContextEPNS_13IDataReceiverEPNS0_19PolarisInstanceDataE,
                            __ZN4roya4impl19PolarisCameraSourceD0Ev,
                            __ZN4roya4impl19PolarisCameraSourceD1Ev,
                            __ZN4roya4impl19PolarisCameraSourceD2Ev,
                            __ZN4roya4impl19deserializeMetadataEP8NSObjectP8NSString,
                            __ZN4roya4impl21MOVKitPointCloudTrack11SubmitFrameEPNS_12MOVContainerEPNS_9FrameDataE,
                            __ZN4roya4impl21MOVKitPointCloudTrack12DoInitializeEPNS_12MOVContainerEPNS_9FrameDataE,
                            __ZN4roya4impl21MOVKitPointCloudTrack9DoCleanupEv,
                            __ZN4roya4impl21MOVKitPointCloudTrackC1EPNS_15PipelineContextERKNSt3__112basic_stringIcNS4_11char_traitsIcEENS4_9allocatorIcEEEE,
                            __ZN4roya4impl21MOVKitPointCloudTrackC2EPNS_15PipelineContextERKNSt3__112basic_stringIcNS4_11char_traitsIcEENS4_9allocatorIcEEEE,
                            __ZN4roya4impl21PolarisSharedResource10GetSessionEv,
                            __ZN4roya4impl21PolarisSharedResource17initializeSessionEv,
                            __ZN4roya4impl21PolarisSharedResource20StreamDomainMetadataERKNSt3__112basic_stringIcNS2_11char_traitsIcEENS2_9allocatorIcEEEE,
                            __ZN4roya4impl21PolarisSharedResource20TrackTypeForResourceERKNSt3__112basic_stringIcNS2_11char_traitsIcEENS2_9allocatorIcEEEE,
                            __ZN4roya4impl21PolarisSharedResource20createPowerAssertionEv,
                            __ZN4roya4impl21PolarisSharedResource21releasePowerAssertionEv,
                            __ZN4roya4impl21PolarisSharedResource31AddCameraResourceUsageAssertionEv,
                            __ZN4roya4impl21PolarisSharedResource31addCameraResourceUsageAssertionEv,
                            __ZN4roya4impl21PolarisSharedResourceC1Ev,
                            __ZN4roya4impl21PolarisSharedResourceC2Ev,
                            __ZN4roya4impl21PolarisSharedResourceD0Ev,
                            __ZN4roya4impl21PolarisSharedResourceD1Ev,
                            __ZN4roya4impl21PolarisSharedResourceD2Ev,
                            __ZN4roya4impl23AudioQueueBufferWrapperC1ENSt3__110shared_ptrINS0_17AudioQueueWrapperEEEj,
                            __ZN4roya4impl23AudioQueueBufferWrapperC2ENSt3__110shared_ptrINS0_17AudioQueueWrapperEEEj,
                            __ZN4roya4impl23AudioQueueBufferWrapperD1Ev,
                            __ZN4roya4impl23AudioQueueBufferWrapperD2Ev,
                            __ZN4roya4impl23DoAPPluginAudioProvider12InstanceDataEv,
                            __ZN4roya4impl23DoAPPluginAudioProvider12OnInitializeEPNS_13IDataReceiverEPNS_15PipelineContextE,
                            __ZN4roya4impl23DoAPPluginAudioProvider6OnStopEPNS_15PipelineContextE,
                            __ZN4roya4impl23DoAPPluginAudioProvider7OnStartEPNS_15PipelineContextE,
                            __ZN4roya4impl23DoAPPluginAudioProvider9OnCleanupEPNS_15PipelineContextE,
                            __ZN4roya4impl23DoAPPluginAudioProviderC1Ev,
                            __ZN4roya4impl23DoAPPluginAudioProviderC2Ev,
                            __ZN4roya4impl23DoAPPluginAudioProviderD0Ev,
                            __ZN4roya4impl23DoAPPluginAudioProviderD1Ev,
                            __ZN4roya4impl23DoAPPluginAudioProviderD2Ev,
                            __ZN4roya4impl23FastPathIMUDataProvider12InstanceDataEv,
                            __ZN4roya4impl23FastPathIMUDataProvider12OnInitializeEPNS_13IDataReceiverEPNS_15PipelineContextE,
                            __ZN4roya4impl23FastPathIMUDataProvider13processSampleEP25_SpuFastPathComboAxisDatay,
                            __ZN4roya4impl23FastPathIMUDataProvider16onTimerCancelledEv,
                            __ZN4roya4impl23FastPathIMUDataProvider22GetSupportedPropertiesEv,
                            __ZN4roya4impl23FastPathIMUDataProvider6OnStopEPNS_15PipelineContextE,
                            __ZN4roya4impl23FastPathIMUDataProvider7OnStartEPNS_15PipelineContextE,
                            __ZN4roya4impl23FastPathIMUDataProvider9OnCleanupEPNS_15PipelineContextE,
                            __ZN4roya4impl23FastPathIMUDataProvider9timerFuncEv,
                            __ZN4roya4impl23FastPathIMUDataProviderC1Ev,
                            __ZN4roya4impl23FastPathIMUDataProviderC2Ev,
                            __ZN4roya4impl23FastPathIMUDataProviderD0Ev,
                            __ZN4roya4impl23FastPathIMUDataProviderD1Ev,
                            __ZN4roya4impl23FastPathIMUDataProviderD2Ev,
                            __ZN4roya4impl23HeadphoneMotionProvider12OnInitializeEPNS_13IDataReceiverEPNS_15PipelineContextE,
                            __ZN4roya4impl23HeadphoneMotionProvider6OnStopEPNS_15PipelineContextE,
                            __ZN4roya4impl23HeadphoneMotionProvider7OnStartEPNS_15PipelineContextE,
                            __ZN4roya4impl23HeadphoneMotionProvider9OnCleanupEPNS_15PipelineContextE,
                            __ZN4roya4impl23HeadphoneMotionProviderC1Ev,
                            __ZN4roya4impl23HeadphoneMotionProviderC2Ev,
                            __ZN4roya4impl23HeadphoneMotionProviderD0Ev,
                            __ZN4roya4impl23HeadphoneMotionProviderD1Ev,
                            __ZN4roya4impl23HeadphoneMotionProviderD2Ev,
                            __ZN4roya4impl23PolarisPointCloudSource10CreateTaskEPNS0_19PolarisInstanceDataE,
                            __ZN4roya4impl23PolarisPointCloudSource12DispatchDataEP17ps_resource_arrayS3_,
                            __ZN4roya4impl23PolarisPointCloudSource15InitializeGraphEPNS0_19PolarisInstanceDataE,
                            __ZN4roya4impl23PolarisPointCloudSourceC1EPNS_15PipelineContextEPNS_13IDataReceiverEPNS0_19PolarisInstanceDataE,
                            __ZN4roya4impl23PolarisPointCloudSourceC2EPNS_15PipelineContextEPNS_13IDataReceiverEPNS0_19PolarisInstanceDataE,
                            __ZN4roya4impl23PolarisPointCloudSourceD0Ev,
                            __ZN4roya4impl23PolarisPointCloudSourceD1Ev,
                            __ZN4roya4impl23PolarisPointCloudSourceD2Ev,
                            __ZN4roya4impl31addAttachmentBufferToDictionaryEP10__CVBufferP19NSMutableDictionaryP8NSString,
                            __ZN4roya4impl33HeadphoneInertialOdometryProvider12OnInitializeEPNS_13IDataReceiverEPNS_15PipelineContextE,
                            __ZN4roya4impl33HeadphoneInertialOdometryProvider6OnStopEPNS_15PipelineContextE,
                            __ZN4roya4impl33HeadphoneInertialOdometryProvider7OnStartEPNS_15PipelineContextE,
                            __ZN4roya4impl33HeadphoneInertialOdometryProvider9OnCleanupEPNS_15PipelineContextE,
                            __ZN4roya4impl33HeadphoneInertialOdometryProviderC1Ev,
                            __ZN4roya4impl33HeadphoneInertialOdometryProviderC2Ev,
                            __ZN4roya4impl33HeadphoneInertialOdometryProviderD0Ev,
                            __ZN4roya4impl33HeadphoneInertialOdometryProviderD1Ev,
                            __ZN4roya4impl33HeadphoneInertialOdometryProviderD2Ev,
                            __ZN4roya4impl38DoAPAudioConverterComplexInputDataProcEP20OpaqueAudioConverterPjP15AudioBufferListPP28AudioStreamPacketDescriptionPv,
                            __ZN4roya4impl4swapEPiS1_,
                            __ZN4roya4util15getBuildVersionEv,
                            __ZN4roya4util15getDeviceSerialEv,
                            __ZN4roya4util15getSpuIntrinscsEv,
                            __ZN4roya4util16getProductConfigEv,
                            __ZN4roya4util17getProductVersionEv,
                            __ZN4roya4util18getDeviceModelNameEv,
                            __ZN4roya4util21checkIfClassAvailableEP8NSString,
                            __ZN4roya6Status7CombineERKS0_,
                            __ZN4roya6StatusC1ENS0_4CodeEPKcz,
                            __ZN4roya6StatusC1ERKS0_, __ZN4roya6StatusC1Ev,
                            __ZN4roya6StatusC2ENS0_4CodeEPKcz,
                            __ZN4roya6StatusC2ERKS0_, __ZN4roya6StatusC2Ev,
                            __ZN4roya7MOVSink12OnInitializeEPNS_15PipelineContextE,
                            __ZN4roya7MOVSink12OnSharedStopEPNS_13CaptureConfigE,
                            __ZN4roya7MOVSink13OnSharedStartEPNS_13CaptureConfigE,
                            __ZN4roya7MOVSink14OnDataReceivedEPNS_15PipelineContextEPNS_9FrameDataE,
                            __ZN4roya7MOVSink15OnSharedCleanupEPNS_13CaptureConfigE,
                            __ZN4roya7MOVSink18OnSharedInitializeEPNS_13CaptureConfigE,
                            __ZN4roya7MOVSink6OnStopEPNS_15PipelineContextE,
                            __ZN4roya7MOVSink7OnStartEPNS_15PipelineContextE,
                            __ZN4roya7MOVSink9OnCleanupEPNS_15PipelineContextE,
                            __ZN4roya7MOVSinkC1ENSt3__110shared_ptrINS_12MOVContainerEEENS1_17basic_string_viewIcNS1_11char_traitsIcEEEE,
                            __ZN4roya7MOVSinkC2ENSt3__110shared_ptrINS_12MOVContainerEEENS1_17basic_string_viewIcNS1_11char_traitsIcEEEE,
                            __ZN4roya7Session10InitializeEv,
                            __ZN4roya7Session11OnSinkEventEPNS_8DataSinkENS_13DataSinkEventERK6CMTime,
                            __ZN4roya7Session12AbortSessionERKNS_6StatusE,
                            __ZN4roya7Session12StartCaptureEv,
                            __ZN4roya7Session14EnableAutoStopEbRK6CMTime,
                            __ZN4roya7Session14OnStateChangedENS_12SessionStateE,
                            __ZN4roya7Session15OnPipelineEventEPNS_8PipelineENS_13PipelineEventERK6CMTimeRKNS_6StatusE,
                            __ZN4roya7Session4StopEv, __ZN4roya7Session5StartEv,
                            __ZN4roya7Session7CleanupEv, __ZN4roya7SessionC1Ev,
                            __ZN4roya7SessionC2Ev, __ZN4roya7SessionD0Ev,
                            __ZN4roya7SessionD1Ev, __ZN4roya7SessionD2Ev,
                            __ZN4roya8DataSink11StopCaptureEv,
                            __ZN4roya8DataSink12OnInitializeEPNS_15PipelineContextE,
                            __ZN4roya8DataSink12OnSharedStopEPNS_13CaptureConfigE,
                            __ZN4roya8DataSink12SetStartTimeERK6CMTime,
                            __ZN4roya8DataSink13OnSharedStartEPNS_13CaptureConfigE,
                            __ZN4roya8DataSink15OnSharedCleanupEPNS_13CaptureConfigE,
                            __ZN4roya8DataSink16AddEventListenerEPNS_22IDataSinkEventReceiverE,
                            __ZN4roya8DataSink18OnSharedInitializeEPNS_13CaptureConfigE,
                            __ZN4roya8DataSink6OnStopEPNS_15PipelineContextE,
                            __ZN4roya8DataSink7ExecuteEPNS_15PipelineContextEPNS_9FrameDataE,
                            __ZN4roya8DataSink7OnStartEPNS_15PipelineContextE,
                            __ZN4roya8DataSink9OnCleanupEPNS_15PipelineContextE,
                            __ZN4roya8DataSinkC2Ev,
                            __ZN4roya8MOVTrack10CountFrameEd,
                            __ZN4roya8MOVTrackC2EPNS_15PipelineContextENS_12MOVTrackTypeERKNSt3__112basic_stringIcNS4_11char_traitsIcEENS4_9allocatorIcEEEE,
                            __ZN4roya8Pipeline10InitializeEPNS_7IObjectE,
                            __ZN4roya8Pipeline11UpdateFrameEPNS_9FrameDataE,
                            __ZN4roya8Pipeline12ProcessFrameEPNS_15PipelineContextEPNS_9FrameDataE,
                            __ZN4roya8Pipeline13GetOperationsEv,
                            __ZN4roya8Pipeline14OnDataReceivedEPNS_15PipelineContextENSt3__110shared_ptrINS_9FrameDataEEE,
                            __ZN4roya8Pipeline15GetDataProviderEv,
                            __ZN4roya8Pipeline16AddStateListenerEPNS_22IPipelineEventReceiverE,
                            __ZN4roya8Pipeline19ValidateTrackConfigEv,
                            __ZN4roya8Pipeline4StopEPNS_7IObjectE,
                            __ZN4roya8Pipeline5AbortEPNS_7IObjectERKNS_6StatusE,
                            __ZN4roya8Pipeline5StartEPNS_7IObjectE,
                            __ZN4roya8Pipeline6AppendENSt3__110shared_ptrINS_10IOperationEEE,
                            __ZN4roya8Pipeline7CleanupEPNS_7IObjectE,
                            __ZN4roya8Pipeline8SetStateENS_13PipelineStateEPNS_7IObjectE,
                            __ZN4roya8Pipeline9OnStartedEv,
                            __ZN4roya8PipelineC1ENSt3__117basic_string_viewIcNS1_11char_traitsIcEEEENS1_10unique_ptrINS_15PipelineContextENS1_14default_deleteIS7_EEEENS1_10shared_ptrINS_13IDataProviderEEENS_16PipelineExecModeE,
                            __ZN4roya8PipelineC1Ev,
                            __ZN4roya8PipelineC2ENSt3__117basic_string_viewIcNS1_11char_traitsIcEEEENS1_10unique_ptrINS_15PipelineContextENS1_14default_deleteIS7_EEEENS1_10shared_ptrINS_13IDataProviderEEENS_16PipelineExecModeE,
                            __ZN4roya8PipelineC2Ev, __ZN4roya8PipelineD0Ev,
                            __ZN4roya8PipelineD1Ev, __ZN4roya8PipelineD2Ev,
                            __ZN4roya9FrameData12SetTimestampE6CMTime,
                            __ZN4roya9FrameData8MetadataEv,
                            __ZN4roya9FrameData8SetIndexEx,
                            __ZN4roya9FrameData9SetStatusENS_11FrameStatusE,
                            __ZN4roya9FrameDataC1ERKS0_,
                            __ZN4roya9FrameDataC1Ex6CMTimeS1_NS_11FrameStatusE,
                            __ZN4roya9FrameDataC2ERKS0_,
                            __ZN4roya9FrameDataC2Ex6CMTimeS1_NS_11FrameStatusE,
                            __ZN4roya9FrameDataD0Ev, __ZN4roya9FrameDataD1Ev,
                            __ZN4roya9FrameDataD2Ev,
                            __ZN4roya9Operation12OnInitializeEPNS_15PipelineContextE,
                            __ZN4roya9Operation6OnStopEPNS_15PipelineContextE,
                            __ZN4roya9Operation7ExecuteEPNS_15PipelineContextEPNS_9FrameDataE,
                            __ZN4roya9Operation7OnStartEPNS_15PipelineContextE,
                            __ZN4roya9Operation9OnCleanupEPNS_15PipelineContextE,
                            __ZNK4roya11MetadataSet4DictEv,
                            __ZNK4roya11MetadataSet7IsEmptyEv,
                            __ZNK4roya11PropertyMap11ValidateIntERKNSt3__112basic_stringIcNS1_11char_traitsIcEENS1_9allocatorIcEEEEiii,
                            __ZNK4roya11PropertyMap12GetFloatListERKNSt3__112basic_stringIcNS1_11char_traitsIcEENS1_9allocatorIcEEEE,
                            __ZNK4roya11PropertyMap13GetStringListERKNSt3__112basic_stringIcNS1_11char_traitsIcEENS1_9allocatorIcEEEE,
                            __ZNK4roya11PropertyMap3GetERKNSt3__112basic_stringIcNS1_11char_traitsIcEENS1_9allocatorIcEEEE,
                            __ZNK4roya11PropertyMap3HasERKNSt3__112basic_stringIcNS1_11char_traitsIcEENS1_9allocatorIcEEEE,
                            __ZNK4roya11PropertyMap6GetIntERKNSt3__112basic_stringIcNS1_11char_traitsIcEENS1_9allocatorIcEEEE,
                            __ZNK4roya11PropertyMap7GetBoolERKNSt3__112basic_stringIcNS1_11char_traitsIcEENS1_9allocatorIcEEEE,
                            __ZNK4roya11PropertyMap8GetFloatERKNSt3__112basic_stringIcNS1_11char_traitsIcEENS1_9allocatorIcEEEE,
                            __ZNK4roya11PropertyMap9GetUInt64ERKNSt3__112basic_stringIcNS1_11char_traitsIcEENS1_9allocatorIcEEEEi,
                            __ZNK4roya11SessionBase17HasPipelineByTypeENS_9TrackTypeE,
                            __ZNK4roya12GraphBuilder17IsDeviceSupportedENS_10DeviceTypeE,
                            __ZNK4roya12GraphBuilder18GetTrackDefinitionERKNS_9TrackInfoE,
                            __ZNK4roya12GraphBuilder22GetStreamNameFromAliasERKNSt3__112basic_stringIcNS1_11char_traitsIcEENS1_9allocatorIcEEEE,
                            __ZNK4roya12GraphBuilder26DetermineDeferredTrackTypeERKNS_9TrackInfoERNS_15TrackDefinitionE,
                            __ZNK4roya12GraphBuilder27GetSupportedTracksForDeviceENS_10DeviceTypeE,
                            __ZNK4roya12MOVContainer11GetFilePathEv,
                            __ZNK4roya12MOVContainer12GetAllTracksEv,
                            __ZNK4roya13CVBufferFrame19CloneImplementationEv,
                            __ZNK4roya14AudioFrameData19CloneImplementationEv,
                            __ZNK4roya14VideoFrameData19CloneImplementationEv,
                            __ZNK4roya15PipelineContext12GetTrackNameEv,
                            __ZNK4roya15PipelineContext13GetPipelineIdEv,
                            __ZNK4roya15PipelineContext13GetStreamNameEv,
                            __ZNK4roya15PipelineContext15GetPipelineNameEv,
                            __ZNK4roya15PipelineContext17GetPrevFrameIndexEv,
                            __ZNK4roya15PipelineContext19GetPipelineExecModeEv,
                            __ZNK4roya15PipelineContext7GetTypeEv,
                            __ZNK4roya15PipelineContext8MetadataEv,
                            __ZNK4roya15SimpleFrameData19CloneImplementationEv,
                            __ZNK4roya16SessionProxyImpl17IsDeviceSupportedENS_10DeviceTypeE,
                            __ZNK4roya16SessionProxyImpl27GetSupportedTracksForDeviceENS_10DeviceTypeE,
                            __ZNK4roya16SessionProxyImpl8GetStateEv,
                            __ZNK4roya16SessionProxyImpl9IsStoppedEv,
                            __ZNK4roya18GraphBuilderForiOS16GetBuiltInTracksENS_10DeviceTypeE,
                            __ZNK4roya18GraphBuilderForiOS19GetSupportedDevicesEv,
                            __ZNK4roya20ExternalDataProvider9DebugNameEv,
                            __ZNK4roya20VideoPipelineContext14CompressFactorEv,
                            __ZNK4roya20VideoPipelineContext5CodecEv,
                            __ZNK4roya20VideoPipelineContext7BitRateEv,
                            __ZNK4roya20VideoPipelineContext7EncoderEv,
                            __ZNK4roya20VideoPipelineContext7QualityEv,
                            __ZNK4roya20VideoPipelineContext7ScalingEv,
                            __ZNK4roya31RegularFrameratePipelineContext9FramerateEv,
                            __ZNK4roya4Node5GetIdEv,
                            __ZNK4roya4impl15AVFDataProvider9DebugNameEv,
                            __ZNK4roya4impl15MOVKitContainer14HasTrackOfTypeEPNS_13CaptureConfigENS_9TrackTypeE,
                            __ZNK4roya4impl15MOVKitContainer18GetCalibrationDataEPNS_13CaptureConfigE,
                            __ZNK4roya4impl15TimeSyncService11hostClockIdEv,
                            __ZNK4roya4impl15TimeSyncService13isInitializedEv,
                            __ZNK4roya4impl16WiFiDataProvider9DebugNameEv,
                            __ZNK4roya4impl17AudioQueueWrappercvP16OpaqueAudioQueueEv,
                            __ZNK4roya4impl18PolarisCameraFrame19CloneImplementationEv,
                            __ZNK4roya4impl23AudioQueueBufferWrappercvP16AudioQueueBufferEv,
                            __ZNK4roya6Status11descriptionEv,
                            __ZNK4roya6Status4codeEv, __ZNK4roya6Status5c_strEv,
                            __ZNK4roya7Session17IsAutoStopEnabledEv,
                            __ZNK4roya9FrameData10ExpirationEv,
                            __ZNK4roya9FrameData19CloneImplementationEv,
                            __ZNK4roya9FrameData5CloneEv,
                            __ZNK4roya9FrameData5IndexEv,
                            __ZNK4roya9FrameData6StatusEv,
                            __ZNK4roya9FrameData8MetadataEv,
                            __ZNK4roya9FrameData9TimestampEv,
                            __ZTIN4roya11FrameDumperE, __ZTIN4roya11MetadataSetE,
                            __ZTIN4roya11SessionBaseE,
                            __ZTIN4roya12DataProviderE,
                            __ZTIN4roya12GraphBuilderE,
                            __ZTIN4roya12MOVContainerE,
                            __ZTIN4roya13CVBufferFrameE,
                            __ZTIN4roya14AsyncOperationE,
                            __ZTIN4roya14AudioFrameDataE,
                            __ZTIN4roya14VideoFrameDataE,
                            __ZTIN4roya15PipelineContextE,
                            __ZTIN4roya15SimpleFrameDataE,
                            __ZTIN4roya16SessionProxyImplE,
                            __ZTIN4roya18GraphBuilderForiOSE,
                            __ZTIN4roya19DataSourceProxyImplE,
                            __ZTIN4roya20AudioPipelineContextE,
                            __ZTIN4roya20ExternalDataProviderE,
                            __ZTIN4roya20VideoPipelineContextE,
                            __ZTIN4roya31RegularFrameratePipelineContextE,
                            __ZTIN4roya4NodeE, __ZTIN4roya4impl13AVFDataSourceE,
                            __ZTIN4roya4impl13PolarisSourceE,
                            __ZTIN4roya4impl14MOVKitIMUTrackE,
                            __ZTIN4roya4impl15AVFDataProviderE,
                            __ZTIN4roya4impl15MOVKitContainerE,
                            __ZTIN4roya4impl15MOVKitWiFiTrackE,
                            __ZTIN4roya4impl15PolarisProviderE,
                            __ZTIN4roya4impl16LocationProviderE,
                            __ZTIN4roya4impl16MOVKitAudioTrackE,
                            __ZTIN4roya4impl16MOVKitVideoTrackE,
                            __ZTIN4roya4impl16PolarisIMUSourceE,
                            __ZTIN4roya4impl16RawAudioProviderE,
                            __ZTIN4roya4impl16TimeSyncProviderE,
                            __ZTIN4roya4impl16WiFiDataProviderE,
                            __ZTIN4roya4impl17HIDDeviceProviderE,
                            __ZTIN4roya4impl17MOVKitCameraTrackE,
                            __ZTIN4roya4impl17MOVKitDesgenTrackE,
                            __ZTIN4roya4impl17PolarisDataSourceE,
                            __ZTIN4roya4impl18PolarisCameraFrameE,
                            __ZTIN4roya4impl19MOVKitMetadataTrackE,
                            __ZTIN4roya4impl19PolarisCameraSourceE,
                            __ZTIN4roya4impl21MOVKitPointCloudTrackE,
                            __ZTIN4roya4impl21PolarisSharedResourceE,
                            __ZTIN4roya4impl23DoAPPluginAudioProviderE,
                            __ZTIN4roya4impl23FastPathIMUDataProviderE,
                            __ZTIN4roya4impl23HeadphoneMotionProviderE,
                            __ZTIN4roya4impl23PolarisPointCloudSourceE,
                            __ZTIN4roya4impl33HeadphoneInertialOdometryProviderE,
                            __ZTIN4roya7MOVSinkE, __ZTIN4roya7SessionE,
                            __ZTIN4roya8DataSinkE, __ZTIN4roya8PipelineE,
                            __ZTIN4roya9FrameDataE, __ZTIN4roya9OperationE,
                            __ZTSN4roya11FrameDumperE, __ZTSN4roya11MetadataSetE,
                            __ZTSN4roya11SessionBaseE,
                            __ZTSN4roya12DataProviderE,
                            __ZTSN4roya12GraphBuilderE,
                            __ZTSN4roya12MOVContainerE,
                            __ZTSN4roya13CVBufferFrameE,
                            __ZTSN4roya14AsyncOperationE,
                            __ZTSN4roya14AudioFrameDataE,
                            __ZTSN4roya14VideoFrameDataE,
                            __ZTSN4roya15PipelineContextE,
                            __ZTSN4roya15SimpleFrameDataE,
                            __ZTSN4roya16SessionProxyImplE,
                            __ZTSN4roya18GraphBuilderForiOSE,
                            __ZTSN4roya19DataSourceProxyImplE,
                            __ZTSN4roya20AudioPipelineContextE,
                            __ZTSN4roya20ExternalDataProviderE,
                            __ZTSN4roya20VideoPipelineContextE,
                            __ZTSN4roya31RegularFrameratePipelineContextE,
                            __ZTSN4roya4NodeE, __ZTSN4roya4impl13AVFDataSourceE,
                            __ZTSN4roya4impl13PolarisSourceE,
                            __ZTSN4roya4impl14MOVKitIMUTrackE,
                            __ZTSN4roya4impl15AVFDataProviderE,
                            __ZTSN4roya4impl15MOVKitContainerE,
                            __ZTSN4roya4impl15MOVKitWiFiTrackE,
                            __ZTSN4roya4impl15PolarisProviderE,
                            __ZTSN4roya4impl16LocationProviderE,
                            __ZTSN4roya4impl16MOVKitAudioTrackE,
                            __ZTSN4roya4impl16MOVKitVideoTrackE,
                            __ZTSN4roya4impl16PolarisIMUSourceE,
                            __ZTSN4roya4impl16RawAudioProviderE,
                            __ZTSN4roya4impl16TimeSyncProviderE,
                            __ZTSN4roya4impl16WiFiDataProviderE,
                            __ZTSN4roya4impl17HIDDeviceProviderE,
                            __ZTSN4roya4impl17MOVKitCameraTrackE,
                            __ZTSN4roya4impl17MOVKitDesgenTrackE,
                            __ZTSN4roya4impl17PolarisDataSourceE,
                            __ZTSN4roya4impl18PolarisCameraFrameE,
                            __ZTSN4roya4impl19MOVKitMetadataTrackE,
                            __ZTSN4roya4impl19PolarisCameraSourceE,
                            __ZTSN4roya4impl21MOVKitPointCloudTrackE,
                            __ZTSN4roya4impl21PolarisSharedResourceE,
                            __ZTSN4roya4impl23DoAPPluginAudioProviderE,
                            __ZTSN4roya4impl23FastPathIMUDataProviderE,
                            __ZTSN4roya4impl23HeadphoneMotionProviderE,
                            __ZTSN4roya4impl23PolarisPointCloudSourceE,
                            __ZTSN4roya4impl33HeadphoneInertialOdometryProviderE,
                            __ZTSN4roya7MOVSinkE, __ZTSN4roya7SessionE,
                            __ZTSN4roya8DataSinkE, __ZTSN4roya8PipelineE,
                            __ZTSN4roya9FrameDataE, __ZTSN4roya9OperationE,
                            __ZTVN4roya11FrameDumperE, __ZTVN4roya11MetadataSetE,
                            __ZTVN4roya11SessionBaseE,
                            __ZTVN4roya12DataProviderE,
                            __ZTVN4roya12GraphBuilderE,
                            __ZTVN4roya12MOVContainerE,
                            __ZTVN4roya13CVBufferFrameE,
                            __ZTVN4roya14AsyncOperationE,
                            __ZTVN4roya14AudioFrameDataE,
                            __ZTVN4roya14VideoFrameDataE,
                            __ZTVN4roya15PipelineContextE,
                            __ZTVN4roya15SimpleFrameDataE,
                            __ZTVN4roya16SessionProxyImplE,
                            __ZTVN4roya18GraphBuilderForiOSE,
                            __ZTVN4roya19DataSourceProxyImplE,
                            __ZTVN4roya20AudioPipelineContextE,
                            __ZTVN4roya20ExternalDataProviderE,
                            __ZTVN4roya20VideoPipelineContextE,
                            __ZTVN4roya31RegularFrameratePipelineContextE,
                            __ZTVN4roya4NodeE, __ZTVN4roya4impl13AVFDataSourceE,
                            __ZTVN4roya4impl13PolarisSourceE,
                            __ZTVN4roya4impl14MOVKitIMUTrackE,
                            __ZTVN4roya4impl15AVFDataProviderE,
                            __ZTVN4roya4impl15MOVKitContainerE,
                            __ZTVN4roya4impl15MOVKitWiFiTrackE,
                            __ZTVN4roya4impl15PolarisProviderE,
                            __ZTVN4roya4impl16LocationProviderE,
                            __ZTVN4roya4impl16MOVKitAudioTrackE,
                            __ZTVN4roya4impl16MOVKitVideoTrackE,
                            __ZTVN4roya4impl16PolarisIMUSourceE,
                            __ZTVN4roya4impl16RawAudioProviderE,
                            __ZTVN4roya4impl16TimeSyncProviderE,
                            __ZTVN4roya4impl16WiFiDataProviderE,
                            __ZTVN4roya4impl17HIDDeviceProviderE,
                            __ZTVN4roya4impl17MOVKitCameraTrackE,
                            __ZTVN4roya4impl17MOVKitDesgenTrackE,
                            __ZTVN4roya4impl17PolarisDataSourceE,
                            __ZTVN4roya4impl18PolarisCameraFrameE,
                            __ZTVN4roya4impl19MOVKitMetadataTrackE,
                            __ZTVN4roya4impl19PolarisCameraSourceE,
                            __ZTVN4roya4impl21MOVKitPointCloudTrackE,
                            __ZTVN4roya4impl21PolarisSharedResourceE,
                            __ZTVN4roya4impl23DoAPPluginAudioProviderE,
                            __ZTVN4roya4impl23FastPathIMUDataProviderE,
                            __ZTVN4roya4impl23HeadphoneMotionProviderE,
                            __ZTVN4roya4impl23PolarisPointCloudSourceE,
                            __ZTVN4roya4impl33HeadphoneInertialOdometryProviderE,
                            __ZTVN4roya7MOVSinkE, __ZTVN4roya7SessionE,
                            __ZTVN4roya8DataSinkE, __ZTVN4roya8PipelineE,
                            __ZTVN4roya9FrameDataE, __ZTVN4roya9OperationE,
                            __ZThn16_N4roya11SessionBase15OnPipelineEventEPNS_8PipelineENS_13PipelineEventERK6CMTimeRKNS_6StatusE,
                            __ZThn16_N4roya11SessionBaseD0Ev,
                            __ZThn16_N4roya11SessionBaseD1Ev,
                            __ZThn16_N4roya7Session15OnPipelineEventEPNS_8PipelineENS_13PipelineEventERK6CMTimeRKNS_6StatusE,
                            __ZThn16_N4roya7SessionD0Ev,
                            __ZThn16_N4roya7SessionD1Ev,
                            __ZThn24_N4roya11SessionBaseD0Ev,
                            __ZThn24_N4roya11SessionBaseD1Ev,
                            __ZThn24_N4roya7Session11OnSinkEventEPNS_8DataSinkENS_13DataSinkEventERK6CMTime,
                            __ZThn24_N4roya7SessionD0Ev,
                            __ZThn24_N4roya7SessionD1Ev,
                            __ZThn32_N4roya11SessionBase10InitializeEPNS_7IObjectE,
                            __ZThn32_N4roya11SessionBase4StopEPNS_7IObjectE,
                            __ZThn32_N4roya11SessionBase5AbortEPNS_7IObjectERKNS_6StatusE,
                            __ZThn32_N4roya11SessionBase5StartEPNS_7IObjectE,
                            __ZThn32_N4roya11SessionBase7CleanupEPNS_7IObjectE,
                            __ZThn32_N4roya11SessionBaseD0Ev,
                            __ZThn32_N4roya11SessionBaseD1Ev,
                            __ZThn32_N4roya7SessionD0Ev,
                            __ZThn32_N4roya7SessionD1Ev,
                            __ZThn72_N4roya11FrameDumper12OnInitializeEPNS_15PipelineContextE,
                            __ZThn72_N4roya11FrameDumper14OnDataReceivedEPNS_15PipelineContextEPNS_9FrameDataE,
                            __ZThn72_N4roya11FrameDumper6OnStopEPNS_15PipelineContextE,
                            __ZThn72_N4roya11FrameDumper7OnStartEPNS_15PipelineContextE,
                            __ZThn72_N4roya11FrameDumper9OnCleanupEPNS_15PipelineContextE,
                            __ZThn72_N4roya12DataProvider6OnStopEPNS_15PipelineContextE,
                            __ZThn72_N4roya12DataProvider7OnStartEPNS_15PipelineContextE,
                            __ZThn72_N4roya12DataProvider9OnCleanupEPNS_15PipelineContextE,
                            __ZThn72_N4roya14AsyncOperation7ExecuteEPNS_15PipelineContextEPNS_9FrameDataE,
                            __ZThn72_N4roya20ExternalDataProvider12OnInitializeEPNS_13IDataReceiverEPNS_15PipelineContextE,
                            __ZThn72_N4roya20ExternalDataProvider6OnStopEPNS_15PipelineContextE,
                            __ZThn72_N4roya20ExternalDataProvider7OnStartEPNS_15PipelineContextE,
                            __ZThn72_N4roya20ExternalDataProvider9OnCleanupEPNS_15PipelineContextE,
                            __ZThn72_N4roya20ExternalDataProviderD0Ev,
                            __ZThn72_N4roya20ExternalDataProviderD1Ev,
                            __ZThn72_N4roya4impl15AVFDataProvider12OnInitializeEPNS_13IDataReceiverEPNS_15PipelineContextE,
                            __ZThn72_N4roya4impl15AVFDataProvider6OnStopEPNS_15PipelineContextE,
                            __ZThn72_N4roya4impl15AVFDataProvider7OnStartEPNS_15PipelineContextE,
                            __ZThn72_N4roya4impl15AVFDataProvider9OnCleanupEPNS_15PipelineContextE,
                            __ZThn72_N4roya4impl15AVFDataProviderD0Ev,
                            __ZThn72_N4roya4impl15AVFDataProviderD1Ev,
                            __ZThn72_N4roya4impl15PolarisProvider12OnInitializeEPNS_13IDataReceiverEPNS_15PipelineContextE,
                            __ZThn72_N4roya4impl15PolarisProvider6OnStopEPNS_15PipelineContextE,
                            __ZThn72_N4roya4impl15PolarisProvider7OnStartEPNS_15PipelineContextE,
                            __ZThn72_N4roya4impl15PolarisProvider9OnCleanupEPNS_15PipelineContextE,
                            __ZThn72_N4roya4impl15PolarisProviderD0Ev,
                            __ZThn72_N4roya4impl15PolarisProviderD1Ev,
                            __ZThn72_N4roya4impl16LocationProvider12OnInitializeEPNS_13IDataReceiverEPNS_15PipelineContextE,
                            __ZThn72_N4roya4impl16LocationProvider6OnStopEPNS_15PipelineContextE,
                            __ZThn72_N4roya4impl16LocationProvider7OnStartEPNS_15PipelineContextE,
                            __ZThn72_N4roya4impl16LocationProvider9OnCleanupEPNS_15PipelineContextE,
                            __ZThn72_N4roya4impl16LocationProviderD0Ev,
                            __ZThn72_N4roya4impl16LocationProviderD1Ev,
                            __ZThn72_N4roya4impl16RawAudioProvider12OnInitializeEPNS_13IDataReceiverEPNS_15PipelineContextE,
                            __ZThn72_N4roya4impl16RawAudioProvider6OnStopEPNS_15PipelineContextE,
                            __ZThn72_N4roya4impl16RawAudioProvider7OnStartEPNS_15PipelineContextE,
                            __ZThn72_N4roya4impl16RawAudioProvider9OnCleanupEPNS_15PipelineContextE,
                            __ZThn72_N4roya4impl16RawAudioProviderD0Ev,
                            __ZThn72_N4roya4impl16RawAudioProviderD1Ev,
                            __ZThn72_N4roya4impl16TimeSyncProvider12OnInitializeEPNS_13IDataReceiverEPNS_15PipelineContextE,
                            __ZThn72_N4roya4impl16TimeSyncProvider6OnStopEPNS_15PipelineContextE,
                            __ZThn72_N4roya4impl16TimeSyncProvider7OnStartEPNS_15PipelineContextE,
                            __ZThn72_N4roya4impl16TimeSyncProvider9OnCleanupEPNS_15PipelineContextE,
                            __ZThn72_N4roya4impl16TimeSyncProviderD0Ev,
                            __ZThn72_N4roya4impl16TimeSyncProviderD1Ev,
                            __ZThn72_N4roya4impl16WiFiDataProvider12OnInitializeEPNS_13IDataReceiverEPNS_15PipelineContextE,
                            __ZThn72_N4roya4impl16WiFiDataProvider6OnStopEPNS_15PipelineContextE,
                            __ZThn72_N4roya4impl16WiFiDataProvider7OnStartEPNS_15PipelineContextE,
                            __ZThn72_N4roya4impl16WiFiDataProvider9OnCleanupEPNS_15PipelineContextE,
                            __ZThn72_N4roya4impl16WiFiDataProviderD0Ev,
                            __ZThn72_N4roya4impl16WiFiDataProviderD1Ev,
                            __ZThn72_N4roya4impl17HIDDeviceProvider12OnInitializeEPNS_13IDataReceiverEPNS_15PipelineContextE,
                            __ZThn72_N4roya4impl17HIDDeviceProvider6OnStopEPNS_15PipelineContextE,
                            __ZThn72_N4roya4impl17HIDDeviceProvider7OnStartEPNS_15PipelineContextE,
                            __ZThn72_N4roya4impl17HIDDeviceProvider9OnCleanupEPNS_15PipelineContextE,
                            __ZThn72_N4roya4impl17HIDDeviceProviderD0Ev,
                            __ZThn72_N4roya4impl17HIDDeviceProviderD1Ev,
                            __ZThn72_N4roya4impl23DoAPPluginAudioProvider12OnInitializeEPNS_13IDataReceiverEPNS_15PipelineContextE,
                            __ZThn72_N4roya4impl23DoAPPluginAudioProvider6OnStopEPNS_15PipelineContextE,
                            __ZThn72_N4roya4impl23DoAPPluginAudioProvider7OnStartEPNS_15PipelineContextE,
                            __ZThn72_N4roya4impl23DoAPPluginAudioProvider9OnCleanupEPNS_15PipelineContextE,
                            __ZThn72_N4roya4impl23DoAPPluginAudioProviderD0Ev,
                            __ZThn72_N4roya4impl23DoAPPluginAudioProviderD1Ev,
                            __ZThn72_N4roya4impl23FastPathIMUDataProvider12OnInitializeEPNS_13IDataReceiverEPNS_15PipelineContextE,
                            __ZThn72_N4roya4impl23FastPathIMUDataProvider6OnStopEPNS_15PipelineContextE,
                            __ZThn72_N4roya4impl23FastPathIMUDataProvider7OnStartEPNS_15PipelineContextE,
                            __ZThn72_N4roya4impl23FastPathIMUDataProvider9OnCleanupEPNS_15PipelineContextE,
                            __ZThn72_N4roya4impl23FastPathIMUDataProviderD0Ev,
                            __ZThn72_N4roya4impl23FastPathIMUDataProviderD1Ev,
                            __ZThn72_N4roya4impl23HeadphoneMotionProvider12OnInitializeEPNS_13IDataReceiverEPNS_15PipelineContextE,
                            __ZThn72_N4roya4impl23HeadphoneMotionProvider6OnStopEPNS_15PipelineContextE,
                            __ZThn72_N4roya4impl23HeadphoneMotionProvider7OnStartEPNS_15PipelineContextE,
                            __ZThn72_N4roya4impl23HeadphoneMotionProvider9OnCleanupEPNS_15PipelineContextE,
                            __ZThn72_N4roya4impl23HeadphoneMotionProviderD0Ev,
                            __ZThn72_N4roya4impl23HeadphoneMotionProviderD1Ev,
                            __ZThn72_N4roya4impl33HeadphoneInertialOdometryProvider12OnInitializeEPNS_13IDataReceiverEPNS_15PipelineContextE,
                            __ZThn72_N4roya4impl33HeadphoneInertialOdometryProvider6OnStopEPNS_15PipelineContextE,
                            __ZThn72_N4roya4impl33HeadphoneInertialOdometryProvider7OnStartEPNS_15PipelineContextE,
                            __ZThn72_N4roya4impl33HeadphoneInertialOdometryProvider9OnCleanupEPNS_15PipelineContextE,
                            __ZThn72_N4roya4impl33HeadphoneInertialOdometryProviderD0Ev,
                            __ZThn72_N4roya4impl33HeadphoneInertialOdometryProviderD1Ev,
                            __ZThn72_N4roya7MOVSink12OnInitializeEPNS_15PipelineContextE,
                            __ZThn72_N4roya7MOVSink12OnSharedStopEPNS_13CaptureConfigE,
                            __ZThn72_N4roya7MOVSink13OnSharedStartEPNS_13CaptureConfigE,
                            __ZThn72_N4roya7MOVSink14OnDataReceivedEPNS_15PipelineContextEPNS_9FrameDataE,
                            __ZThn72_N4roya7MOVSink15OnSharedCleanupEPNS_13CaptureConfigE,
                            __ZThn72_N4roya7MOVSink18OnSharedInitializeEPNS_13CaptureConfigE,
                            __ZThn72_N4roya7MOVSink6OnStopEPNS_15PipelineContextE,
                            __ZThn72_N4roya7MOVSink7OnStartEPNS_15PipelineContextE,
                            __ZThn72_N4roya7MOVSink9OnCleanupEPNS_15PipelineContextE,
                            __ZThn72_N4roya8DataSink12OnInitializeEPNS_15PipelineContextE,
                            __ZThn72_N4roya8DataSink12OnSharedStopEPNS_13CaptureConfigE,
                            __ZThn72_N4roya8DataSink13OnSharedStartEPNS_13CaptureConfigE,
                            __ZThn72_N4roya8DataSink15OnSharedCleanupEPNS_13CaptureConfigE,
                            __ZThn72_N4roya8DataSink18OnSharedInitializeEPNS_13CaptureConfigE,
                            __ZThn72_N4roya8DataSink6OnStopEPNS_15PipelineContextE,
                            __ZThn72_N4roya8DataSink7ExecuteEPNS_15PipelineContextEPNS_9FrameDataE,
                            __ZThn72_N4roya8DataSink7OnStartEPNS_15PipelineContextE,
                            __ZThn72_N4roya8DataSink9OnCleanupEPNS_15PipelineContextE,
                            __ZThn72_N4roya9Operation12OnInitializeEPNS_15PipelineContextE,
                            __ZThn72_N4roya9Operation6OnStopEPNS_15PipelineContextE,
                            __ZThn72_N4roya9Operation7ExecuteEPNS_15PipelineContextEPNS_9FrameDataE,
                            __ZThn72_N4roya9Operation7OnStartEPNS_15PipelineContextE,
                            __ZThn72_N4roya9Operation9OnCleanupEPNS_15PipelineContextE,
                            __ZThn72_NK4roya20ExternalDataProvider9DebugNameEv,
                            __ZThn72_NK4roya4impl15AVFDataProvider9DebugNameEv,
                            __ZThn72_NK4roya4impl16WiFiDataProvider9DebugNameEv,
                            __ZThn80_N4roya12DataProvider14OnStateChangedENS_17DataProviderStateE,
                            __ZThn80_N4roya20ExternalDataProvider14OnStateChangedENS_17DataProviderStateE,
                            __ZThn8_N4roya20ExternalDataProviderD0Ev,
                            __ZThn8_N4roya20ExternalDataProviderD1Ev,
                            __ZThn8_N4roya4Node22GetSupportedPropertiesEv,
                            __ZThn8_N4roya4impl13PolarisSource22GetSupportedPropertiesEv,
                            __ZThn8_N4roya4impl13PolarisSourceD0Ev,
                            __ZThn8_N4roya4impl13PolarisSourceD1Ev,
                            __ZThn8_N4roya4impl15AVFDataProviderD0Ev,
                            __ZThn8_N4roya4impl15AVFDataProviderD1Ev,
                            __ZThn8_N4roya4impl15PolarisProvider22GetSupportedPropertiesEv,
                            __ZThn8_N4roya4impl15PolarisProviderD0Ev,
                            __ZThn8_N4roya4impl15PolarisProviderD1Ev,
                            __ZThn8_N4roya4impl16LocationProviderD0Ev,
                            __ZThn8_N4roya4impl16LocationProviderD1Ev,
                            __ZThn8_N4roya4impl16PolarisIMUSourceD0Ev,
                            __ZThn8_N4roya4impl16PolarisIMUSourceD1Ev,
                            __ZThn8_N4roya4impl16RawAudioProviderD0Ev,
                            __ZThn8_N4roya4impl16RawAudioProviderD1Ev,
                            __ZThn8_N4roya4impl16TimeSyncProvider22GetSupportedPropertiesEv,
                            __ZThn8_N4roya4impl16TimeSyncProviderD0Ev,
                            __ZThn8_N4roya4impl16TimeSyncProviderD1Ev,
                            __ZThn8_N4roya4impl16WiFiDataProvider22GetSupportedPropertiesEv,
                            __ZThn8_N4roya4impl16WiFiDataProviderD0Ev,
                            __ZThn8_N4roya4impl16WiFiDataProviderD1Ev,
                            __ZThn8_N4roya4impl17HIDDeviceProviderD0Ev,
                            __ZThn8_N4roya4impl17HIDDeviceProviderD1Ev,
                            __ZThn8_N4roya4impl17PolarisDataSourceD0Ev,
                            __ZThn8_N4roya4impl17PolarisDataSourceD1Ev,
                            __ZThn8_N4roya4impl19PolarisCameraSource22GetSupportedPropertiesEv,
                            __ZThn8_N4roya4impl19PolarisCameraSourceD0Ev,
                            __ZThn8_N4roya4impl19PolarisCameraSourceD1Ev,
                            __ZThn8_N4roya4impl23DoAPPluginAudioProviderD0Ev,
                            __ZThn8_N4roya4impl23DoAPPluginAudioProviderD1Ev,
                            __ZThn8_N4roya4impl23FastPathIMUDataProvider22GetSupportedPropertiesEv,
                            __ZThn8_N4roya4impl23FastPathIMUDataProviderD0Ev,
                            __ZThn8_N4roya4impl23FastPathIMUDataProviderD1Ev,
                            __ZThn8_N4roya4impl23HeadphoneMotionProviderD0Ev,
                            __ZThn8_N4roya4impl23HeadphoneMotionProviderD1Ev,
                            __ZThn8_N4roya4impl23PolarisPointCloudSourceD0Ev,
                            __ZThn8_N4roya4impl23PolarisPointCloudSourceD1Ev,
                            __ZThn8_N4roya4impl33HeadphoneInertialOdometryProviderD0Ev,
                            __ZThn8_N4roya4impl33HeadphoneInertialOdometryProviderD1Ev,
                            __ZThn8_N4roya8Pipeline14OnDataReceivedEPNS_15PipelineContextENSt3__110shared_ptrINS_9FrameDataEEE,
                            __ZThn8_N4roya8PipelineD0Ev,
                            __ZThn8_N4roya8PipelineD1Ev,
                            __ZThn96_N4roya20ExternalDataProvider14OnReceivedDataEyyPKvy,
                            __ZThn96_N4roya20ExternalDataProvider21OnReceivedPixelBufferEyyP10__CVBuffer,
                            __ZThn96_N4roya20ExternalDataProvider27OnReceivedAudioSampleBufferEyP20opaqueCMSampleBuffer,
                            __ZThn96_N4roya20ExternalDataProviderD0Ev,
                            __ZThn96_N4roya20ExternalDataProviderD1Ev,
                            _kCALayerTextureLogExtension,
                            _kCALayerTextureLogPrefix,
                            _kCALayerVideoSyncComponentEnabled,
                            _kDefaultStartTimeout, _kMOVAllowedFrameDropLevel,
                            _kMOVCVCalibration, _kMOVCreationTime,
                            _kMOVDisplayFrequency, _kMOVMCT2MATDelta,
                            _kMOVSourceConfigurations, _kMOVSpuIntrinsics,
                            _kMOVStartTime, _kMOVSummaryMIOVersion,
                            _kMOVSummaryRYFVersion, _kMOVSummaryRoyaVersion,
                            _kMOVSummaryZeroMachTime, _kManagedAssetsInitial,
                            _kRYFAPTimestampBase, _kRYFARResultDataTypeKey,
                            _kRYFAttachmentBuffers, _kRYFBytesKey,
                            _kRYFBytesPerRowKey, _kRYFCALayerAtlasLayoutKey,
                            _kRYFCALayerAtlasTrackNumberKey, _kRYFCloudLengthKey,
                            _kRYFDisplayMode, _kRYFExtrinsics, _kRYFFrameNumber,
                            _kRYFFreeFormApproximationKey, _kRYFHeightKey,
                            _kRYFHostClockIdentifier, _kRYFIntrinsics,
                            _kRYFJasperBankOrder, _kRYFMINRSSI,
                            _kRYFMOVMetadataTrackKindIdentifier,
                            _kRYFMOVTrackKindIdentifier,
                            _kRYFMachAbsoluteStartTime,
                            _kRYFMachContinuousStartTime,
                            _kRYFMachTimeBaseDenominator,
                            _kRYFMachTimeBaseNumerator,
                            _kRYFMachTimeZoneAbbreviation, _kRYFMachTimeZoneName,
                            _kRYFMachWallClockStartTime, _kRYFMattingBiasKey,
                            _kRYFMattingScaleKey, _kRYFMovieTimeScale,
                            _kRYFNominalFrameRateKey,
                            _kRYFOriginalBytesPerRowKey,
                            _kRYFPearlDXAttachmentKey, _kRYFPearlDYAttachmentKey,
                            _kRYFPearlScoreAttachmentKey, _kRYFPixelFormatKey,
                            _kRYFPolarisFrameID, _kRYFPolarisStreamDomainKey,
                            _kRYFPolarisStride, _kRYFPolarisTimeStamp,
                            _kRYFPresentationTime, _kRYFROIHeight, _kRYFROILeft,
                            _kRYFROITop, _kRYFROIWidth, _kRYFRemoteFrameID,
                            _kRYFSPUTimestampBase, _kRYFSensorTime,
                            _kRYFWiFiChannels, _kRYFWidthKey,
                            _kRoyaCaptureUserDefaultsSuiteName,
                            _kTrackName_Bluetooth_Doap_Mic,
                            _kTrackName_Bluetooth_Mic, _kTrackName_ClockRef,
                            _kTrackName_HeadphoneInertialOdometry,
                            _kTrackName_HeadphoneMotion, _kTrackName_Location,
                            _kTrackName_VisionPro_accel,
                            _kTrackName_VisionPro_als,
                            _kTrackName_VisionPro_als_0,
                            _kTrackName_VisionPro_audio,
                            _kTrackName_VisionPro_becaml_raw,
                            _kTrackName_VisionPro_becaml_s2bu,
                            _kTrackName_VisionPro_becaml_s2buc,
                            _kTrackName_VisionPro_becaml_s2u,
                            _kTrackName_VisionPro_becaml_s2u52,
                            _kTrackName_VisionPro_becaml_s2u52p,
                            _kTrackName_VisionPro_becaml_s2uc,
                            _kTrackName_VisionPro_becamr_raw,
                            _kTrackName_VisionPro_becamr_s2bu,
                            _kTrackName_VisionPro_becamr_s2buc,
                            _kTrackName_VisionPro_becamr_s2u,
                            _kTrackName_VisionPro_becamr_s2u52,
                            _kTrackName_VisionPro_becamr_s2u52p,
                            _kTrackName_VisionPro_becamr_s2uc,
                            _kTrackName_VisionPro_calibration,
                            _kTrackName_VisionPro_compass,
                            _kTrackName_VisionPro_compass200,
                            _kTrackName_VisionPro_compass_compass200,
                            _kTrackName_VisionPro_dcaml_desgen,
                            _kTrackName_VisionPro_dcaml_raw,
                            _kTrackName_VisionPro_dcaml_s2bu,
                            _kTrackName_VisionPro_dcaml_s2bw,
                            _kTrackName_VisionPro_dcaml_s2bwp,
                            _kTrackName_VisionPro_dcaml_s2u,
                            _kTrackName_VisionPro_dcaml_s2u21,
                            _kTrackName_VisionPro_dcaml_s2w,
                            _kTrackName_VisionPro_dcaml_s2wp,
                            _kTrackName_VisionPro_dcamr_desgen,
                            _kTrackName_VisionPro_dcamr_raw,
                            _kTrackName_VisionPro_dcamr_s2bu,
                            _kTrackName_VisionPro_dcamr_s2bw,
                            _kTrackName_VisionPro_dcamr_s2bwp,
                            _kTrackName_VisionPro_dcamr_s2u,
                            _kTrackName_VisionPro_dcamr_s2u21,
                            _kTrackName_VisionPro_dcamr_s2w,
                            _kTrackName_VisionPro_dcamr_s2wp,
                            _kTrackName_VisionPro_devicemotion,
                            _kTrackName_VisionPro_gyro,
                            _kTrackName_VisionPro_imu800,
                            _kTrackName_VisionPro_imu800_left,
                            _kTrackName_VisionPro_imu800_right,
                            _kTrackName_VisionPro_imu_imu800,
                            _kTrackName_VisionPro_imu_imu800_left,
                            _kTrackName_VisionPro_imu_imu800_right,
                            _kTrackName_VisionPro_ipd,
                            _kTrackName_VisionPro_jasper_pointcloud,
                            _kTrackName_VisionPro_jasper_raw,
                            _kTrackName_VisionPro_jcaml_raw,
                            _kTrackName_VisionPro_jcaml_s2bu,
                            _kTrackName_VisionPro_jcaml_s2bw,
                            _kTrackName_VisionPro_jcaml_s2bwp,
                            _kTrackName_VisionPro_jcaml_s2u,
                            _kTrackName_VisionPro_jcaml_s2u21,
                            _kTrackName_VisionPro_jcaml_s2w,
                            _kTrackName_VisionPro_jcaml_s2wp,
                            _kTrackName_VisionPro_jcamr_raw,
                            _kTrackName_VisionPro_jcamr_s2bu,
                            _kTrackName_VisionPro_jcamr_s2bw,
                            _kTrackName_VisionPro_jcamr_s2bwp,
                            _kTrackName_VisionPro_jcamr_s2u,
                            _kTrackName_VisionPro_jcamr_s2u21,
                            _kTrackName_VisionPro_jcamr_s2w,
                            _kTrackName_VisionPro_jcamr_s2wp,
                            _kTrackName_VisionPro_mcaml_desgen,
                            _kTrackName_VisionPro_mcaml_raw,
                            _kTrackName_VisionPro_mcaml_s3w,
                            _kTrackName_VisionPro_mcaml_s3wr,
                            _kTrackName_VisionPro_mcaml_s4w,
                            _kTrackName_VisionPro_mcaml_s8u,
                            _kTrackName_VisionPro_mcaml_s8u41_10,
                            _kTrackName_VisionPro_mcamr_desgen,
                            _kTrackName_VisionPro_mcamr_raw,
                            _kTrackName_VisionPro_mcamr_s3w,
                            _kTrackName_VisionPro_mcamr_s3wr,
                            _kTrackName_VisionPro_mcamr_s4w,
                            _kTrackName_VisionPro_mcamr_s8u,
                            _kTrackName_VisionPro_mcamr_s8u41_10,
                            _kTrackName_VisionPro_mesh_dcaml_s2bu_s2bw,
                            _kTrackName_VisionPro_mesh_dcaml_s2u_s2w,
                            _kTrackName_VisionPro_mesh_dcamr_s2bu_s2bw,
                            _kTrackName_VisionPro_mesh_dcamr_s2u_s2w,
                            _kTrackName_VisionPro_mesh_jasper,
                            _kTrackName_VisionPro_mesh_jcaml_s2bu_s2bw,
                            _kTrackName_VisionPro_mesh_jcaml_s2u_s2w,
                            _kTrackName_VisionPro_mesh_jcamr_s2bu_s2bw,
                            _kTrackName_VisionPro_mesh_jcamr_s2u_s2w,
                            _kTrackName_VisionPro_mesh_mcaml_s3w_s3wr,
                            _kTrackName_VisionPro_mesh_mcaml_s8u_s1,
                            _kTrackName_VisionPro_mesh_mcamr_s3w_s3wr,
                            _kTrackName_VisionPro_mesh_mcamr_s8u_s1,
                            _kTrackName_VisionPro_mesh_pcam_iru_irw,
                            _kTrackName_VisionPro_mesh_scaml_s2bu_s2bw,
                            _kTrackName_VisionPro_mesh_scaml_s2u_s2w,
                            _kTrackName_VisionPro_mesh_scamr_s2bu_s2bw,
                            _kTrackName_VisionPro_mesh_scamr_s2u_s2w,
                            _kTrackName_VisionPro_motion,
                            _kTrackName_VisionPro_necaml_raw,
                            _kTrackName_VisionPro_necaml_s2bu,
                            _kTrackName_VisionPro_necaml_s2buc,
                            _kTrackName_VisionPro_necaml_s2u,
                            _kTrackName_VisionPro_necaml_s2u52,
                            _kTrackName_VisionPro_necaml_s2u52p,
                            _kTrackName_VisionPro_necaml_s2uc,
                            _kTrackName_VisionPro_necamr_raw,
                            _kTrackName_VisionPro_necamr_s2bu,
                            _kTrackName_VisionPro_necamr_s2buc,
                            _kTrackName_VisionPro_necamr_s2u,
                            _kTrackName_VisionPro_necamr_s2u52,
                            _kTrackName_VisionPro_necamr_s2u52p,
                            _kTrackName_VisionPro_necamr_s2uc,
                            _kTrackName_VisionPro_pcam_depth,
                            _kTrackName_VisionPro_pcam_iru,
                            _kTrackName_VisionPro_pcam_irw,
                            _kTrackName_VisionPro_pearl_depth,
                            _kTrackName_VisionPro_scaml_desgen,
                            _kTrackName_VisionPro_scaml_raw,
                            _kTrackName_VisionPro_scaml_s2bu,
                            _kTrackName_VisionPro_scaml_s2bw,
                            _kTrackName_VisionPro_scaml_s2bwp,
                            _kTrackName_VisionPro_scaml_s2u,
                            _kTrackName_VisionPro_scaml_s2u21,
                            _kTrackName_VisionPro_scaml_s2w,
                            _kTrackName_VisionPro_scaml_s2wp,
                            _kTrackName_VisionPro_scamr_desgen,
                            _kTrackName_VisionPro_scamr_raw,
                            _kTrackName_VisionPro_scamr_s2bu,
                            _kTrackName_VisionPro_scamr_s2bw,
                            _kTrackName_VisionPro_scamr_s2bwp,
                            _kTrackName_VisionPro_scamr_s2u,
                            _kTrackName_VisionPro_scamr_s2u21,
                            _kTrackName_VisionPro_scamr_s2w,
                            _kTrackName_VisionPro_scamr_s2wp,
                            _kTrackName_VisionPro_voice,
                            _kTrackName_VisionPro_vsync,
                            _kTrackName_VisionPro_xcam_pointcloud,
                            _kTrackName_VisionPro_xcam_raw, _kTrackName_WiFi,
                            _kTrackName_iPhone_atk_mic_default,
                            _kTrackName_iPhone_avf_camera_default,
                            _kTrackName_iPhone_avf_mic_default,
                            _kTrackPrefix_HIDDevice,
                            _kTrackPrefix_VisionPro_polaris,
                            _kTrackProperty_WiFi_Channels,
                            _kTrackProperty_WiFi_Min_RSSI,
                            _kTrackProperty_bitrate,
                            _kTrackProperty_bud_image_quality_param,
                            _kTrackProperty_clock_id, _kTrackProperty_codec,
                            _kTrackProperty_compressfactor,
                            _kTrackProperty_encoder, _kTrackProperty_fps,
                            _kTrackProperty_imulocation,
                            _kTrackProperty_mocked_camera_source_manifest,
                            _kTrackProperty_name, _kTrackProperty_quality,
                            _kTrackProperty_roi_height, _kTrackProperty_roi_left,
                            _kTrackProperty_roi_top, _kTrackProperty_roi_width,
                            _kTrackProperty_stride, _kVideoEncoderH264,
                            _kVideoEncoderHEVC, _kVideoEncoderHEVCWithAlpha,
                            _kVideoEncoderJPEG, _kVideoEncoderRaw,
                            _kVideoEncoderSlim, _kVideoEncoderSlimX,
                            _kVideoEncoderUnknown, _kVideoEncoderVCP,
                            _kVideoEncoderYZip ]
    objc-classes:         [ AudioDataOutputSampleBufferDelegate, DoAPPlugin,
                            HeadphoneMotionService, LocationService,
                            MOVStreamWriterDelegateObject,
                            RYA_AVCaptureOutputSampleBufferDelegate,
                            RYFTimedValue, RoyaWiFiScanner,
                            VideoDataOutputSampleBufferDelegate ]
    objc-ivars:           [ DoAPPlugin.mPlugins,
                            HeadphoneMotionService._motionCallback,
                            HeadphoneMotionService._motionManager,
                            HeadphoneMotionService._motionSerialQueue,
                            HeadphoneMotionService._underlayingQueue,
                            LocationService._locationCallback,
                            LocationService._locationManager,
                            LocationService._locationQueue,
                            MOVStreamWriterDelegateObject.host_,
                            RYA_AVCaptureOutputSampleBufferDelegate.context,
                            RYA_AVCaptureOutputSampleBufferDelegate.dataReceiver,
                            RYA_AVCaptureOutputSampleBufferDelegate.provider,
                            RYFTimedValue._attachments,
                            RYFTimedValue._syncTimestamp,
                            RYFTimedValue._timestamp, RYFTimedValue._value,
                            RoyaWiFiScanner._channels, RoyaWiFiScanner._context,
                            RoyaWiFiScanner._dataReceiver,
                            RoyaWiFiScanner._frameCount,
                            RoyaWiFiScanner._frequency,
                            RoyaWiFiScanner._isCanceled,
                            RoyaWiFiScanner._lastTimestamp,
                            RoyaWiFiScanner._minRSSI, RoyaWiFiScanner._provider,
                            RoyaWiFiScanner._queue, RoyaWiFiScanner._scanParams,
                            RoyaWiFiScanner._timer,
                            RoyaWiFiScanner._wifiInterface,
                            RoyaWiFiScanner._wifiTimeToSystemOffset ]
    weak-def-symbols:     [ __ZNSt3__119piecewise_constructE ]
...
