--- !tapi-tbd-v3
archs:                 [ armv7, armv7s, arm64, arm64e ]
platform:              ios
flags:                 [ flat_namespace ]
install-name:          /System/Library/PrivateFrameworks/CoreMotionFDNML.framework/CoreMotionFDNML
current-version:       0.0.1
compatibility-version: 0.0.1
objc-constraint:       retain_release
exports:
  - archs:                [ armv7, armv7s, arm64, arm64e ]
    symbols:              [ __ZN6motion17TransitEmbeddings7predictERKNSt3__13mapINS1_12basic_stringIcNS1_11char_traitsIcEENS1_9allocatorIcEEEENS_2fm9ArrayDataENS1_4lessIS8_EENS6_INS1_4pairIKS8_SA_EEEEEENS1_8functionIFvNS1_10shared_ptrIKNS9_16PredictionResultEEEEEE,
                            __ZN6motion17TransitEmbeddingsC1EPU28objcproto17OS_dispatch_queue8NSObject,
                            __ZN6motion17TransitEmbeddingsC2EPU28objcproto17OS_dispatch_queue8NSObject,
                            __ZN6motion27kCalorimetryWRMetConfigPathEv,
                            __ZN6motion28CalorimetryReducedEmbeddings7predictERKNSt3__13mapINS1_12basic_stringIcNS1_11char_traitsIcEENS1_9allocatorIcEEEENS_2fm9ArrayDataENS1_4lessIS8_EENS6_INS1_4pairIKS8_SA_EEEEEENS1_8functionIFvNS1_10shared_ptrIKNS9_16PredictionResultEEEEEE,
                            __ZN6motion28CalorimetryReducedEmbeddingsC1EPU28objcproto17OS_dispatch_queue8NSObject,
                            __ZN6motion28CalorimetryReducedEmbeddingsC2EPU28objcproto17OS_dispatch_queue8NSObject,
                            __ZN6motion2fm11CoreMLModel14FromBundlePathEPKcPU28objcproto17OS_dispatch_queue8NSObject,
                            __ZN6motion2fm11CoreMLModelC1EONS1_4ImplE,
                            __ZN6motion2fm11CoreMLModelC1EOS1_,
                            __ZN6motion2fm11CoreMLModelC1EPKc,
                            __ZN6motion2fm11CoreMLModelC1EPKcPU28objcproto17OS_dispatch_queue8NSObject,
                            __ZN6motion2fm11CoreMLModelC1ERKS1_,
                            __ZN6motion2fm11CoreMLModelC2EONS1_4ImplE,
                            __ZN6motion2fm11CoreMLModelC2EOS1_,
                            __ZN6motion2fm11CoreMLModelC2EPKc,
                            __ZN6motion2fm11CoreMLModelC2EPKcPU28objcproto17OS_dispatch_queue8NSObject,
                            __ZN6motion2fm11CoreMLModelC2ERKS1_,
                            __ZN6motion2fm11CoreMLModelD1Ev,
                            __ZN6motion2fm11CoreMLModelD2Ev,
                            __ZN6motion2fm11CoreMLModelaSEOS1_,
                            __ZN6motion2fm11CoreMLModelaSERKS1_,
                            __ZN6motion2fm20predictWithModelNameERNS0_6ClientERKNSt3__13mapINS3_12basic_stringIcNS3_11char_traitsIcEENS3_9allocatorIcEEEENS0_9ArrayDataENS3_4lessISA_EENS8_INS3_4pairIKSA_SB_EEEEEERSF_NS3_8functionIFvNS3_10shared_ptrIKNS0_16PredictionResultEEEEEE,
                            __ZN6motion2fm6Client28sendModelManagerRequestAsyncERKNS0_19ModelManagerRequestENSt3__112basic_stringIcNS5_11char_traitsIcEENS5_9allocatorIcEEEENS5_8functionIFvNS5_10shared_ptrIKNS0_20ModelManagerResponseEEEEEE,
                            __ZN6motion2fm6ClientC1ENSt3__16vectorINS2_12basic_stringIcNS2_11char_traitsIcEENS2_9allocatorIcEEEENS7_IS9_EEEES9_iS9_PU28objcproto17OS_dispatch_queue8NSObject,
                            __ZN6motion2fm6ClientC1EOS1_,
                            __ZN6motion2fm6ClientC1EPU28objcproto17OS_dispatch_queue8NSObject,
                            __ZN6motion2fm6ClientC1ERKS1_,
                            __ZN6motion2fm6ClientC2ENSt3__16vectorINS2_12basic_stringIcNS2_11char_traitsIcEENS2_9allocatorIcEEEENS7_IS9_EEEES9_iS9_PU28objcproto17OS_dispatch_queue8NSObject,
                            __ZN6motion2fm6ClientC2EOS1_,
                            __ZN6motion2fm6ClientC2EPU28objcproto17OS_dispatch_queue8NSObject,
                            __ZN6motion2fm6ClientC2ERKS1_,
                            __ZN6motion2fm6ClientD1Ev, __ZN6motion2fm6ClientD2Ev,
                            __ZN6motion2fm6ClientaSEOS1_,
                            __ZN6motion2fm6ClientaSERKS1_,
                            __ZNK6motion2fm11CoreMLModel12predictAsyncERKNSt3__13mapINS2_12basic_stringIcNS2_11char_traitsIcEENS2_9allocatorIcEEEENS0_9ArrayDataENS2_4lessIS9_EENS7_INS2_4pairIKS9_SA_EEEEEENS2_8functionIFvNS2_10shared_ptrIKNS0_16PredictionResultEEEEEE,
                            __ZNK6motion2fm11CoreMLModel7predictERKNSt3__13mapINS2_12basic_stringIcNS2_11char_traitsIcEENS2_9allocatorIcEEEENS0_9ArrayDataENS2_4lessIS9_EENS7_INS2_4pairIKS9_SA_EEEEEE,
                            __ZNK6motion2fm9ArrayData11BytesLengthEv,
                            __ZNK6motion2fm9ArrayData11NumElementsEv ]
    objc-classes:         [ _TtC15CoreMotionFDNML13CMCoreMLModel,
                            _TtC15CoreMotionFDNML15CMWrappedArrays,
                            _TtC15CoreMotionFDNML23CMFoundationModelClient,
                            _TtC15CoreMotionFDNML24CMFoundationModelRequest,
                            _TtC15CoreMotionFDNML25CMFoundationModelResponse,
                            _TtC15CoreMotionFDNML8UAFPaths ]
    weak-def-symbols:     [ __ZNSt3__119piecewise_constructE ]
...
