--- !tapi-tbd-v3
archs:                 [ armv7, armv7s, arm64, arm64e ]
platform:              ios
flags:                 [ flat_namespace ]
install-name:          /System/Library/PrivateFrameworks/BatteryAlgorithms.framework/BatteryAlgorithms
current-version:       1
compatibility-version: 1
objc-constraint:       retain_release
exports:
  - archs:                [ armv7, armv7s, arm64, arm64e ]
    symbols:              [ _BatteryAlgorithmsVersionNumber,
                            _BatteryAlgorithmsVersionString,
                            __Z15findVCathAtVmaxRKNSt3__16vectorIdNS_9allocatorIdEEEES5_ddS5_dRK9dataTableIdE,
                            __Z15findVCathAtVmaxRKNSt3__16vectorIdNS_9allocatorIdEEEES5_ddddRK9dataTableIdE,
                            __ZN10ACAMLogger10extractSBCEPK4ACAM,
                            __ZN10ACAMLogger12extractDailyEPK4ACAM,
                            __ZN10ACAMLogger13extractWeeklyEPK4ACAM,
                            __ZN10ACAMLogger5Daily7getNCCpEPK4ACAMRdS4_,
                            __ZN10ACAMStatus11setInitTypeE12ACAMInitType,
                            __ZN10ACAMStatus15skipAlgoRunningEv,
                            __ZN10ACAMStatus17computeAlgoStatusERKNS_13SystemSignalsERKNS_16FreshInitSignalsE,
                            __ZN10ACAMStatus18setDataErrorStatusERK16ACAMBatteryStateS2_RK14ACAMAgingStateRKN17ACAMConfiguration9DataBoundERK19ACAMCommonParameterRK24ACAMDynamicConfiguration,
                            __ZN10ACAMStatus18setFreshInitReasonE19ACAMFreshInitReason,
                            __ZN10ACAMStatus19setAlgoStatusBufferERKNS_13SystemSignalsERKNS_16FreshInitSignalsE,
                            __ZN10ACAMStatus21interpolationRequiredEv,
                            __ZN10ACAMStatus22initializationRequiredEv,
                            __ZN10BaseLogger21getItemsByActiveStateENS_11ActiveStateE,
                            __ZN10BaseLogger3logEv,
                            __ZN10BaseLogger4initENSt3__112basic_stringIcNS0_11char_traitsIcEENS0_9allocatorIcEEEERKS_,
                            __ZN10BaseLogger4initENSt3__112basic_stringIcNS0_11char_traitsIcEENS0_9allocatorIcEEEEi14HeronLogFormat,
                            __ZN10BaseLogger4initENSt3__112basic_stringIcNS0_11char_traitsIcEENS0_9allocatorIcEEEEi14HeronLogFormatRKS_,
                            __ZN10BaseLogger5_initENSt3__112basic_stringIcNS0_11char_traitsIcEENS0_9allocatorIcEEEEi14HeronLogFormatRKS_,
                            __ZN10BaseLogger5flushEv, __ZN10BaseLogger5setupEv,
                            __ZN10BaseLogger7getRootEv, __ZN10BaseLoggerC2Ev,
                            __ZN10BaseLoggerD0Ev, __ZN10BaseLoggerD1Ev,
                            __ZN10BaseLoggerD2Ev,
                            __ZN12LoggerModule15getEntryByRegexENSt3__112basic_stringIcNS0_11char_traitsIcEENS0_9allocatorIcEEEES6_,
                            __ZN12LoggerModule18getAccessorByRegexENSt3__112basic_stringIcNS0_11char_traitsIcEENS0_9allocatorIcEEEES6_,
                            __ZN12LoggerModule8addEntryE8LogEntryINSt3__17variantIJfdNS1_13unordered_mapINS1_12basic_stringIcNS1_11char_traitsIcEENS1_9allocatorIcEEEEdNS1_4hashIS9_EENS1_8equal_toIS9_EENS7_INS1_4pairIKS9_dEEEEEEEEE10PropertiesE,
                            __ZN12LoggerModule8getEntryENSt3__112basic_stringIcNS0_11char_traitsIcEENS0_9allocatorIcEEEE,
                            __ZN12LoggerModule9getModuleENSt3__112basic_stringIcNS0_11char_traitsIcEENS0_9allocatorIcEEEE,
                            __ZN13CafeLVRLogger4_logEv,
                            __ZN13CafeLVRLogger6_setupEv,
                            __ZN13CafeSwellAlgo10CoreEngine11runCafeFastEv,
                            __ZN13CafeSwellAlgo10CoreEngine11runCafeSlowERKNS_8BDCInputERKNS_10SMCKeyDataE,
                            __ZN13CafeSwellAlgo10CoreEngine7preInitEPKNS_5StateERb,
                            __ZN13CafeSwellAlgo10CoreEngine7runOnceERKNS_8BDCInputERKNS_10SMCKeyDataEi,
                            __ZN13CafeSwellAlgo10CoreEngine9freshInitERKNS_10SMCKeyDataE,
                            __ZN13CafeSwellAlgo10CoreEngineD1Ev,
                            __ZN13CafeSwellAlgo10CoreEngineD2Ev,
                            __ZN13CafeSwellAlgo10SyncedDataC1EdRKNS_8BDCInputEd,
                            __ZN13CafeSwellAlgo10SyncedDataC2EdRKNS_8BDCInputEd,
                            __ZN13CafeSwellAlgo11VmaxDefaultE,
                            __ZN13CafeSwellAlgo11slewRateD23E,
                            __ZN13CafeSwellAlgo11slewRateV53E,
                            __ZN13CafeSwellAlgo11slewRateV54E,
                            __ZN13CafeSwellAlgo11slewRateV57E,
                            __ZN13CafeSwellAlgo11slewRateV59E,
                            __ZN13CafeSwellAlgo12slewRateV159E,
                            __ZN13CafeSwellAlgo13Serialization34createDiskStateFromPersistentStateERKNS_5StateE,
                            __ZN13CafeSwellAlgo13deltaVStepD23E,
                            __ZN13CafeSwellAlgo13deltaVStepV53E,
                            __ZN13CafeSwellAlgo13deltaVStepV54E,
                            __ZN13CafeSwellAlgo13deltaVStepV57E,
                            __ZN13CafeSwellAlgo13deltaVStepV59E,
                            __ZN13CafeSwellAlgo14deltaVStepV159E,
                            __ZN13CafeSwellAlgo14numCafeTierD23E,
                            __ZN13CafeSwellAlgo14numCafeTierV53E,
                            __ZN13CafeSwellAlgo14numCafeTierV54E,
                            __ZN13CafeSwellAlgo14numCafeTierV57E,
                            __ZN13CafeSwellAlgo14numCafeTierV59E,
                            __ZN13CafeSwellAlgo15Deserialization24setOBCDataFromDictionaryEPNS_7OBCDataEPK12NSDictionary,
                            __ZN13CafeSwellAlgo15Deserialization24setSBCDataFromDictionaryEPNS_7SBCDataEPK12NSDictionary,
                            __ZN13CafeSwellAlgo15Deserialization27setSMCKeyDataFromDictionaryEPNS_10SMCKeyDataEPK12NSDictionary,
                            __ZN13CafeSwellAlgo15Deserialization28setACAMSBCDataFromDictionaryEPNS_11ACAMSBCDataEPK12NSDictionary,
                            __ZN13CafeSwellAlgo15Deserialization30setACAMDailyDataFromDictionaryEPNS_13ACAMDailyDataEPK12NSDictionary,
                            __ZN13CafeSwellAlgo15Deserialization32setPersistentStateFromDictionaryERNS_5StateEPK12NSDictionary,
                            __ZN13CafeSwellAlgo15cafeTierVmaxD23E,
                            __ZN13CafeSwellAlgo15cafeTierVmaxV53E,
                            __ZN13CafeSwellAlgo15cafeTierVmaxV54E,
                            __ZN13CafeSwellAlgo15cafeTierVmaxV57E,
                            __ZN13CafeSwellAlgo15cafeTierVmaxV59E,
                            __ZN13CafeSwellAlgo15cafeTierVminD23E,
                            __ZN13CafeSwellAlgo15cafeTierVminV53E,
                            __ZN13CafeSwellAlgo15cafeTierVminV54E,
                            __ZN13CafeSwellAlgo15cafeTierVminV57E,
                            __ZN13CafeSwellAlgo15cafeTierVminV59E,
                            __ZN13CafeSwellAlgo15numCafeTierV159E,
                            __ZN13CafeSwellAlgo15slewRateDefaultE,
                            __ZN13CafeSwellAlgo15vacCyclesRawD23E,
                            __ZN13CafeSwellAlgo15vacCyclesRawV53E,
                            __ZN13CafeSwellAlgo15vacCyclesRawV54E,
                            __ZN13CafeSwellAlgo15vacCyclesRawV57E,
                            __ZN13CafeSwellAlgo15vacCyclesRawV59E,
                            __ZN13CafeSwellAlgo16cafeTierVmaxV159E,
                            __ZN13CafeSwellAlgo16cafeTierVminV159E,
                            __ZN13CafeSwellAlgo16deltaTimeStepD23E,
                            __ZN13CafeSwellAlgo16deltaTimeStepV53E,
                            __ZN13CafeSwellAlgo16deltaTimeStepV54E,
                            __ZN13CafeSwellAlgo16deltaTimeStepV57E,
                            __ZN13CafeSwellAlgo16deltaTimeStepV59E,
                            __ZN13CafeSwellAlgo16vacCyclesRawV159E,
                            __ZN13CafeSwellAlgo17deltaTimeStepV159E,
                            __ZN13CafeSwellAlgo17deltaVStepDefaultE,
                            __ZN13CafeSwellAlgo17forecastLongevityEdddddRKNS_13ConfigurationERKNS_15ForecastControlERKNS_10SyncedDataERKNS_11VCathAnchorERK14ACAMAgingModelRd,
                            __ZN13CafeSwellAlgo18longevityTargetD23E,
                            __ZN13CafeSwellAlgo18longevityTargetV53E,
                            __ZN13CafeSwellAlgo18longevityTargetV54E,
                            __ZN13CafeSwellAlgo18longevityTargetV57E,
                            __ZN13CafeSwellAlgo18longevityTargetV59E,
                            __ZN13CafeSwellAlgo18numCafeTierDefaultE,
                            __ZN13CafeSwellAlgo19cafeTierVmaxDefaultE,
                            __ZN13CafeSwellAlgo19cafeTierVminDefaultE,
                            __ZN13CafeSwellAlgo19deferralDurationD23E,
                            __ZN13CafeSwellAlgo19deferralDurationV53E,
                            __ZN13CafeSwellAlgo19deferralDurationV54E,
                            __ZN13CafeSwellAlgo19deferralDurationV57E,
                            __ZN13CafeSwellAlgo19deferralDurationV59E,
                            __ZN13CafeSwellAlgo19fastAlgoIntervalD23E,
                            __ZN13CafeSwellAlgo19fastAlgoIntervalV53E,
                            __ZN13CafeSwellAlgo19fastAlgoIntervalV54E,
                            __ZN13CafeSwellAlgo19fastAlgoIntervalV57E,
                            __ZN13CafeSwellAlgo19fastAlgoIntervalV59E,
                            __ZN13CafeSwellAlgo19longevityTargetV159E,
                            __ZN13CafeSwellAlgo19slowAlgoIntervalD23E,
                            __ZN13CafeSwellAlgo19slowAlgoIntervalV53E,
                            __ZN13CafeSwellAlgo19slowAlgoIntervalV54E,
                            __ZN13CafeSwellAlgo19slowAlgoIntervalV57E,
                            __ZN13CafeSwellAlgo19slowAlgoIntervalV59E,
                            __ZN13CafeSwellAlgo19vacCyclesRawDefaultE,
                            __ZN13CafeSwellAlgo19validateRunningDataEPK12NSDictionary,
                            __ZN13CafeSwellAlgo20datacheckOverrideD23E,
                            __ZN13CafeSwellAlgo20datacheckOverrideV53E,
                            __ZN13CafeSwellAlgo20datacheckOverrideV54E,
                            __ZN13CafeSwellAlgo20datacheckOverrideV57E,
                            __ZN13CafeSwellAlgo20datacheckOverrideV59E,
                            __ZN13CafeSwellAlgo20deferralDurationV159E,
                            __ZN13CafeSwellAlgo20deltaTimeStepDefaultE,
                            __ZN13CafeSwellAlgo20fastAlgoIntervalV159E,
                            __ZN13CafeSwellAlgo20slowAlgoIntervalV159E,
                            __ZN13CafeSwellAlgo20vacCyclesTiersRawD23E,
                            __ZN13CafeSwellAlgo20vacCyclesTiersRawV53E,
                            __ZN13CafeSwellAlgo20vacCyclesTiersRawV54E,
                            __ZN13CafeSwellAlgo20vacCyclesTiersRawV57E,
                            __ZN13CafeSwellAlgo20vacCyclesTiersRawV59E,
                            __ZN13CafeSwellAlgo21datacheckOverrideV159E,
                            __ZN13CafeSwellAlgo21generateSyntheticDataERKNS_13ConfigurationEdddRKNS_10SyncedDataERK16ACAMAgingUpdatorRNS_15ForecastControlERNS_11VCathAnchorE,
                            __ZN13CafeSwellAlgo21vacCyclesTiersRawV159E,
                            __ZN13CafeSwellAlgo22longevityTargetDefaultE,
                            __ZN13CafeSwellAlgo22optimizeCafeTrajectoryEdddNSt3__18functionIFddEEERdS4_,
                            __ZN13CafeSwellAlgo23deferralDurationDefaultE,
                            __ZN13CafeSwellAlgo23fastAlgoIntervalDefaultE,
                            __ZN13CafeSwellAlgo23slowAlgoIntervalDefaultE,
                            __ZN13CafeSwellAlgo24datacheckOverrideDefaultE,
                            __ZN13CafeSwellAlgo24vacCyclesTiersRawDefaultE,
                            __ZN13CafeSwellAlgo7VmaxD23E,
                            __ZN13CafeSwellAlgo7VmaxV53E,
                            __ZN13CafeSwellAlgo7VmaxV54E,
                            __ZN13CafeSwellAlgo7VmaxV57E,
                            __ZN13CafeSwellAlgo7VmaxV59E,
                            __ZN13CafeSwellAlgo8VmaxV159E,
                            __ZN14ACAMAgingModelC1EP23ACAMAgingModelParameterP19ACAMCommonParameterP17ACAMConfiguration,
                            __ZN14ACAMAgingModelC2EP23ACAMAgingModelParameterP19ACAMCommonParameterP17ACAMConfiguration,
                            __ZN14CafeLVRUtility20createRuntimeOptionsEv,
                            __ZN15AdaptiveOcvAlgo10CoreEngine12getCapturedVEPA500_dRNSt3__16vectorIdNS3_9allocatorIdEEEE,
                            __ZN15AdaptiveOcvAlgo10CoreEngine12getTelemetryENS_5StateENS_16CCSOCLinearModelENS_18CoverageScoreParamENS_12CCdriftModelEddPdRNSt3__16vectorIdNS6_9allocatorIdEEEESB_SB_SB_SB_RiSC_,
                            __ZN15AdaptiveOcvAlgo10CoreEngine12runAlgorithmENS_10SystemLoadE,
                            __ZN15AdaptiveOcvAlgo10CoreEngine13getDriftStateERNS_12CCdriftModelE,
                            __ZN15AdaptiveOcvAlgo10CoreEngine13getIdxMinRMSEEddPd,
                            __ZN15AdaptiveOcvAlgo10CoreEngine13getOCVminRMSEERKNS_16ConfigurationOCVES3_RA1_S2_ddPdRNSt3__16vectorIdNS7_9allocatorIdEEEE,
                            __ZN15AdaptiveOcvAlgo10CoreEngine13setDriftStateENS_12CCdriftModelE,
                            __ZN15AdaptiveOcvAlgo10CoreEngine14getSelectedOCVENS_16CCSOCLinearModelEddPdRNS_16ConfigurationOCVE,
                            __ZN15AdaptiveOcvAlgo10CoreEngine16freeData4SympOCVEv,
                            __ZN15AdaptiveOcvAlgo10CoreEngine16prepData4SympOCVEPKimii,
                            __ZN15AdaptiveOcvAlgo10CoreEngine4initERKNS_16ConfigurationOCVES3_RKNS_10MLOCVModelE,
                            __ZN15AdaptiveOcvAlgo10CoreEngine8getStateERNS_5StateE,
                            __ZN15AdaptiveOcvAlgo10CoreEngine8setStateENS_5StateE,
                            __ZN15AdaptiveOcvAlgo10CoreEngineC1EPNS_13ConfigurationE,
                            __ZN15AdaptiveOcvAlgo10CoreEngineC2EPNS_13ConfigurationE,
                            __ZN15AdaptiveOcvAlgo10CoreEngineD1Ev,
                            __ZN15AdaptiveOcvAlgo10CoreEngineD2Ev,
                            __ZN15AdaptiveOcvAlgo10MLOCVModel10learnMLOCVEv,
                            __ZN15AdaptiveOcvAlgo10MLOCVModelC1Ev,
                            __ZN15AdaptiveOcvAlgo10MLOCVModelC2Ev,
                            __ZN15AdaptiveOcvAlgo10MLOCVModelD1Ev,
                            __ZN15AdaptiveOcvAlgo10MLOCVModelD2Ev,
                            __ZN15AdaptiveOcvAlgo13Serialization34createBDCOutputFromPersistentStateERKNS_9BDCOutputE,
                            __ZN15AdaptiveOcvAlgo13Serialization34createDiskStateFromPersistentStateERKNS_15PersistentStateE,
                            __ZN15AdaptiveOcvAlgo13fitSOCCCModelERKNS_16CCSOCLinearModelERNS_10CCSOCTableE,
                            __ZN15AdaptiveOcvAlgo15Deserialization22setMlOcvFromDictionaryEPK12NSDictionaryRNS_18ConfigurationMLOCVE,
                            __ZN15AdaptiveOcvAlgo15Deserialization28setSystemLoadBufferFromArrayERNS_16SystemLoadBufferEPK7NSArray,
                            __ZN15AdaptiveOcvAlgo15Deserialization33setPersistentStatesFromDictionaryEPK12NSDictionaryRNS_15PersistentStateE,
                            __ZN15AdaptiveOcvAlgo15PersistentState20updateOCVTrackStatusENS_5StateE,
                            __ZN15AdaptiveOcvAlgo15PersistentStateC1Ev,
                            __ZN15AdaptiveOcvAlgo15PersistentStateC2Ev,
                            __ZN15AdaptiveOcvAlgo15PersistentStateD1Ev,
                            __ZN15AdaptiveOcvAlgo15PersistentStateD2Ev,
                            __ZN15AdaptiveOcvAlgo15fitCCdriftModelEPKiS1_S1_S1_S1_mRNS_5StateERNS_12CCdriftModelE,
                            __ZN15AdaptiveOcvAlgo16CCSOCLinearModel10pushOCVPORERKNS_16ConfigurationOCVE,
                            __ZN15AdaptiveOcvAlgo16CCSOCLinearModel15pushOCVSelectedERKNS_16ConfigurationOCVE,
                            __ZN15AdaptiveOcvAlgo16SystemLoadBuffer4viewEv,
                            __ZN15AdaptiveOcvAlgo16SystemLoadBuffer5clearEv,
                            __ZN15AdaptiveOcvAlgo16SystemLoadBuffer8populateEiiiiii,
                            __ZN15AdaptiveOcvAlgo16SystemLoadBufferC1Em,
                            __ZN15AdaptiveOcvAlgo16SystemLoadBufferC2Em,
                            __ZN15AdaptiveOcvAlgo16createSOCCCtableERKNS_5StateERKNSt3__16vectorIdNS3_9allocatorIdEEEERKNS_16ConfigurationOCVERKNS_16CCSOCLinearModelERNS_10CCSOCTableE,
                            __ZN15AdaptiveOcvAlgo16selectUsefulDataEPKiS1_S1_S1_S1_S1_S1_mRKNSt3__16vectorIdNS2_9allocatorIdEEEENS_13ConfigurationERNS_5StateERNS_16CCSOCLinearModelE,
                            __ZN15AdaptiveOcvAlgo18CoverageScoreParam16getCoverageScoreEv,
                            __ZN15AdaptiveOcvAlgo18CoverageScoreParam22calculateCoverageScoreENS_5StateERKNS_16CCSOCLinearModelENS_13ConfigurationE,
                            __ZN15AdaptiveOcvAlgo18CoverageScoreParam25calculateCoverageScoreDayENS_5StateERKNS_16CCSOCLinearModelENS_13ConfigurationE,
                            __ZN15AdaptiveOcvAlgo18CoverageScoreParam25calculateCoverageScoreSOCENS_5StateERKNS_16CCSOCLinearModelENS_13ConfigurationE,
                            __ZN15AdaptiveOcvAlgo18CoverageScoreParam26calculateCoverageScoreTempENS_5StateERKNS_16CCSOCLinearModelENS_13ConfigurationE,
                            __ZN15AdaptiveOcvAlgo18CoverageScoreParam28calculateCoverageScoreNumberENS_5StateERKNS_16CCSOCLinearModelENS_13ConfigurationE,
                            __ZN15AdaptiveOcvAlgo18calculateCCSOCRMSEERNS_10CCSOCTableE,
                            __ZN15AdaptiveOcvAlgo19validateRunningDataEPK12NSDictionary,
                            __ZN15AdaptiveOcvAlgo22fitSOCCCModelByOCVpoolERKNS_5StateERKNSt3__16vectorIdNS3_9allocatorIdEEEERKNS_16CCSOCLinearModelERdSD_Pd,
                            __ZN15AdaptiveOcvAlgo26fitCCdriftModelLSiterativeERNS_5StateERNS_12CCdriftModelE,
                            __ZN15AdaptiveOcvAlgo31gAdaptiveOCVConfigurationD23ATLE,
                            __ZN15AdaptiveOcvAlgo31gAdaptiveOCVConfigurationD47ATLE,
                            __ZN15AdaptiveOcvAlgo31gAdaptiveOCVConfigurationD47COSE,
                            __ZN15AdaptiveOcvAlgo31gAdaptiveOCVConfigurationD48ATLE,
                            __ZN15AdaptiveOcvAlgo31gAdaptiveOCVConfigurationD48LGCE,
                            __ZN15AdaptiveOcvAlgo31gAdaptiveOCVConfigurationD93ATLE,
                            __ZN15AdaptiveOcvAlgo31gAdaptiveOCVConfigurationD94ATLE,
                            __ZN15AdaptiveOcvAlgo31gAdaptiveOCVConfigurationD94LGCE,
                            __ZN15AdaptiveOcvAlgo31gAdaptiveOCVConfigurationV57ATLE,
                            __ZN15AdaptiveOcvAlgo31gAdaptiveOCVConfigurationV57COSE,
                            __ZN15AdaptiveOcvAlgo31gAdaptiveOCVConfigurationV59ATLE,
                            __ZN15AdaptiveOcvAlgo32gAdaptiveOCVConfigurationDefaultE,
                            __ZN15AdaptiveOcvAlgo32gAdaptiveOCVConfigurationV159ATLE,
                            __ZN15AdaptiveOcvAlgo32gAdaptiveOCVConfigurationV53eATLE,
                            __ZN15AdaptiveOcvAlgo32gAdaptiveOCVConfigurationV53eCOSE,
                            __ZN15AdaptiveOcvAlgo32gAdaptiveOCVConfigurationV53pATLE,
                            __ZN15AdaptiveOcvAlgo32gAdaptiveOCVConfigurationV53pCOSE,
                            __ZN15AdaptiveOcvAlgo32gAdaptiveOCVConfigurationV54eATLE,
                            __ZN15AdaptiveOcvAlgo32gAdaptiveOCVConfigurationV54eLGCE,
                            __ZN15AdaptiveOcvAlgo32gAdaptiveOCVConfigurationV54pATLE,
                            __ZN15AdaptiveOcvAlgo32gAdaptiveOCVConfigurationV54pLGCE,
                            __ZN15AdaptiveOcvAlgo32gAdaptiveOCVConfigurationV59LGESE,
                            __ZN15AdaptiveOcvAlgo33gAdaptiveOCVConfigurationV159LGESE,
                            __ZN15AdaptiveOcvAlgo3cdfEddd,
                            __ZN15AdaptiveOcvAlgo3pdfEddd,
                            __ZN15AdaptiveOcvAlgo6Matrix5printERKNSt3__112basic_stringIcNS1_11char_traitsIcEENS1_9allocatorIcEEEERKNS1_6vectorINSA_IdNS5_IdEEEENS5_ISC_EEEE,
                            __ZN15AdaptiveOcvAlgo6Matrix6matmulERKNSt3__16vectorINS2_IdNS1_9allocatorIdEEEENS3_IS5_EEEES9_,
                            __ZN15AdaptiveOcvAlgo6Matrix7inverseERKNSt3__16vectorINS2_IdNS1_9allocatorIdEEEENS3_IS5_EEEE,
                            __ZN15AdaptiveOcvAlgo6Matrix7oppsignENSt3__16vectorINS2_IdNS1_9allocatorIdEEEENS3_IS5_EEEE,
                            __ZN15AdaptiveOcvAlgo6Matrix8assemblyERKNSt3__16vectorINS2_IdNS1_9allocatorIdEEEENS3_IS5_EEEES9_S9_S9_,
                            __ZN15AdaptiveOcvAlgo6Matrix8subtractERKNSt3__16vectorINS2_IdNS1_9allocatorIdEEEENS3_IS5_EEEES9_,
                            __ZN15AdaptiveOcvAlgo6Matrix9subMatrixERKNSt3__16vectorINS2_IdNS1_9allocatorIdEEEENS3_IS5_EEEEmmmm,
                            __ZN15AdaptiveOcvAlgo6getSOCENS_16ConfigurationOCVEdd,
                            __ZN15AdaptiveOcvAlgo6interpEPdS0_id,
                            __ZN15AdaptiveOcvAlgo9getChrSOCENS_16ConfigurationOCVEdd,
                            __ZN16ACAMAgingUpdatorC1EP25ACAMAgingUpdatorParameterP29ACAMPerformanceModelParameterP19ACAMCommonParameterP17ACAMConfiguration,
                            __ZN16ACAMAgingUpdatorC2EP25ACAMAgingUpdatorParameterP29ACAMPerformanceModelParameterP19ACAMCommonParameterP17ACAMConfiguration,
                            __ZN16ACAMAgingUpdatorD1Ev,
                            __ZN16ACAMAgingUpdatorD2Ev,
                            __ZN16CafeSwellUtility20createRuntimeOptionsEv,
                            __ZN16TypeErasedConfig5Entry11setCallbackENSt3__18functionIFvPS0_EEE,
                            __ZN16TypeErasedConfig5Entry11setCallbackENSt3__18functionIFvvEEE,
                            __ZN16TypeErasedConfig5Entry14setDescriptionENSt3__112basic_stringIcNS1_11char_traitsIcEENS1_9allocatorIcEEEE,
                            __ZN16TypeErasedConfig5Entry4dumpEv,
                            __ZN16TypeErasedConfig5Entry5printEv,
                            __ZN16TypeErasedConfig5Entry6updateENSt3__112basic_stringIcNS1_11char_traitsIcEENS1_9allocatorIcEEEE,
                            __ZN16TypeErasedConfig5EntryC1EOS0_,
                            __ZN16TypeErasedConfig5EntryC1ERKS0_,
                            __ZN16TypeErasedConfig5EntryC1Ev,
                            __ZN16TypeErasedConfig5EntryC2EOS0_,
                            __ZN16TypeErasedConfig5EntryC2ERKS0_,
                            __ZN16TypeErasedConfig5EntryC2Ev,
                            __ZN16TypeErasedConfig5EntryaSEOS0_,
                            __ZN16TypeErasedConfig5EntryaSERKS0_,
                            __ZN16TypeErasedConfig6Module11removeEntryENSt3__112basic_stringIcNS1_11char_traitsIcEENS1_9allocatorIcEEEE,
                            __ZN16TypeErasedConfig6Module11updateEntryENSt3__112basic_stringIcNS1_11char_traitsIcEENS1_9allocatorIcEEEES7_,
                            __ZN16TypeErasedConfig6Module12removeModuleENSt3__112basic_stringIcNS1_11char_traitsIcEENS1_9allocatorIcEEEE,
                            __ZN16TypeErasedConfig6Module13updateGenericERNSt3__16vectorINS1_12basic_stringIcNS1_11char_traitsIcEENS1_9allocatorIcEEEENS6_IS8_EEEE,
                            __ZN16TypeErasedConfig6Module14getDescriptionEv,
                            __ZN16TypeErasedConfig6Module14setDescriptionENSt3__112basic_stringIcNS1_11char_traitsIcEENS1_9allocatorIcEEEE,
                            __ZN16TypeErasedConfig6Module6updateESt16initializer_listINSt3__112basic_stringIcNS2_11char_traitsIcEENS2_9allocatorIcEEEEE,
                            __ZN16TypeErasedConfig6Module7getNameEPS0_,
                            __ZN16TypeErasedConfig6Module8traverseENSt3__18functionIFvPS0_EEE,
                            __ZN16TypeErasedConfig6Module8traverseENSt3__18functionIFvPS0_S3_EEE,
                            __ZN16TypeErasedConfig6ModuleC1EOS0_,
                            __ZN16TypeErasedConfig6ModuleC1ERKS0_,
                            __ZN16TypeErasedConfig6ModuleC2EOS0_,
                            __ZN16TypeErasedConfig6ModuleC2ERKS0_,
                            __ZN16TypeErasedConfig6ModuleD1Ev,
                            __ZN16TypeErasedConfig6ModuleD2Ev,
                            __ZN16TypeErasedConfig6ModuleaSEOS0_,
                            __ZN16TypeErasedConfig6ModuleaSERKS0_,
                            __ZN16TypeErasedConfig6option14is_white_spaceEc,
                            __ZN16TypeErasedConfig6option5resetEv,
                            __ZN16TypeErasedConfig7utility11splitStringERKNSt3__112basic_stringIcNS1_11char_traitsIcEENS1_9allocatorIcEEEEc,
                            __ZN16TypeErasedConfig7utility12editDistanceENSt3__117basic_string_viewIcNS1_11char_traitsIcEEEES5_,
                            __ZN16TypeErasedConfig7utility14curCharEscapedENSt3__117basic_string_viewIcNS1_11char_traitsIcEEEEm,
                            __ZN16TypeErasedConfig7utility16splitStringGroupERKNSt3__112basic_stringIcNS1_11char_traitsIcEENS1_9allocatorIcEEEEccc,
                            __ZN16TypeErasedConfig7utility19validFlatAssignmentENSt3__117basic_string_viewIcNS1_11char_traitsIcEEEEcc,
                            __ZN16TypeErasedConfig7utility21splitStringWithStringERKNSt3__112basic_stringIcNS1_11char_traitsIcEENS1_9allocatorIcEEEES9_,
                            __ZN16TypeErasedConfig7utility24lexinumerical_comparatorERKNSt3__112basic_stringIcNS1_11char_traitsIcEENS1_9allocatorIcEEEES9_,
                            __ZN16TypeErasedConfig7utility32findSubstrWithBalancingCloseCharENSt3__117basic_string_viewIcNS1_11char_traitsIcEEEEmcc,
                            __ZN16TypeErasedConfig7utility4trimENSt3__117basic_string_viewIcNS1_11char_traitsIcEEEE,
                            __ZN16TypeErasedConfig7utility5quoteERKNSt3__112basic_stringIcNS1_11char_traitsIcEENS1_9allocatorIcEEEE,
                            __ZN16TypeErasedConfig7utility9doYouMeanERKNSt3__16vectorINS1_17basic_string_viewIcNS1_11char_traitsIcEEEENS1_9allocatorIS6_EEEE,
                            __ZN17ACAMSerialization13Serialization20createBDCSBCFromACAMEPK4ACAMd,
                            __ZN17ACAMSerialization13Serialization22createBDCDailyFromACAMEPK4ACAMd,
                            __ZN17ACAMSerialization13Serialization23createBDCWeeklyFromACAMEPK4ACAMd,
                            __ZN17ACAMSerialization13Serialization27createCoreAnalyticsFromACAMEPK4ACAM,
                            __ZN17ACAMSerialization13Serialization34createDiskStateFromPersistentStateEPK20ACAMPersistentStates,
                            __ZN17ACAMSerialization15Deserialization24setOBCDataFromDictionaryEP7OBCDataPK12NSDictionary,
                            __ZN17ACAMSerialization15Deserialization24setSBCDataFromDictionaryEP7SBCDataPK12NSDictionary,
                            __ZN17ACAMSerialization15Deserialization26setDailyDataFromDictionaryEP9DailyDataPKddPK12NSDictionary,
                            __ZN17ACAMSerialization15Deserialization27setSMCKeyDataFromDictionaryEP10SMCKeyDataPKddPK12NSDictionary,
                            __ZN17ACAMSerialization15Deserialization32setSystemSignalsFromDictionariesEPN10ACAMStatus13SystemSignalsEPK12NSDictionaryS6_,
                            __ZN17ACAMSerialization15Deserialization33setPersistentStatesFromDictionaryEP20ACAMPersistentStatesPK12NSDictionary,
                            __ZN17ACAMSerialization15Deserialization33setSmartBatteryDataFromDictionaryEP16SmartBatteryDataPK12NSDictionary,
                            __ZN19LowVoltageResidency10SafeHarbor9getConfigEv,
                            __ZN19LowVoltageResidency12PIController21importPersistentStateERKNS_15PersistentState10ControllerE,
                            __ZN19LowVoltageResidency12PIController5resetEv,
                            __ZN19LowVoltageResidency12PIController7computeEdd,
                            __ZN19LowVoltageResidency12PIController9getConfigEv,
                            __ZN19LowVoltageResidency13Serialization28TypeErasedConfigModuleToJsonEPN16TypeErasedConfig6ModuleE,
                            __ZN19LowVoltageResidency13Serialization34createDiskStateFromPersistentStateERNS_15PersistentStateE,
                            __ZN19LowVoltageResidency15Deserialization27setSMCKeyDataFromDictionaryEPNS_10SMCKeyDataEPK12NSDictionaryNS_5InputEPKNSt3__16vectorINS8_INS8_IdNS7_9allocatorIdEEEENS9_ISB_EEEENS9_ISD_EEEEPKd,
                            __ZN19LowVoltageResidency15Deserialization33setPersistentStatesFromDictionaryEPK12NSDictionaryRNS_15PersistentStateE,
                            __ZN19LowVoltageResidency15PersistentState19getTypeErasedConfigEv,
                            __ZN19LowVoltageResidency18ControlEffortTable13setParametersERKNSt3__16vectorIdNS1_9allocatorIdEEEES7_S7_,
                            __ZN19LowVoltageResidency18ControlEffortTable15checkParametersEv,
                            __ZN19LowVoltageResidency18ControlEffortTable15getShutdownInfoEd,
                            __ZN19LowVoltageResidency18ControlEffortTable5resetEv,
                            __ZN19LowVoltageResidency18ControlEffortTableC1ERKNSt3__16vectorIdNS1_9allocatorIdEEEES7_S7_,
                            __ZN19LowVoltageResidency18ControlEffortTableC2ERKNSt3__16vectorIdNS1_9allocatorIdEEEES7_S7_,
                            __ZN19LowVoltageResidency18PolicySettingStateILNS_8PolicyIdE0EE9getConfigEv,
                            __ZN19LowVoltageResidency18PolicySettingStateILNS_8PolicyIdE1EE11logRegisterER12LoggerModule,
                            __ZN19LowVoltageResidency18PolicySettingStateILNS_8PolicyIdE1EE9getConfigEv,
                            __ZN19LowVoltageResidency18PolicySettingStateILNS_8PolicyIdE2EE11logRegisterER12LoggerModule,
                            __ZN19LowVoltageResidency18PolicySettingStateILNS_8PolicyIdE2EE9getConfigEv,
                            __ZN19LowVoltageResidency6Engine10runOneStepExxb,
                            __ZN19LowVoltageResidency6Engine11logRegisterER12LoggerModule,
                            __ZN19LowVoltageResidency6Engine21exportPersistentStateEv,
                            __ZN19LowVoltageResidency6Engine21importPersistentStateERNS_15PersistentStateE,
                            __ZN19LowVoltageResidency6EngineC1Ev,
                            __ZN19LowVoltageResidency6EngineC2Ev,
                            __ZN19LowVoltageResidency6Linear9getConfigEv,
                            __ZN19LowVoltageResidency6Policy11logRegisterER12LoggerModule,
                            __ZN19LowVoltageResidency6Policy13preprocessLVREx,
                            __ZN19LowVoltageResidency6Policy16getControlEffortEv,
                            __ZN19LowVoltageResidency6Policy21importPersistentStateERKNS_15PersistentStateE,
                            __ZN19LowVoltageResidency6Policy30getTargetAndUpdateCommonStatesExx,
                            __ZN19LowVoltageResidency6Policy3runExx,
                            __ZN19LowVoltageResidency6Policy9getConfigEv,
                            __ZN19LowVoltageResidency9Quadratic9getConfigEv,
                            __ZN19OnDeviceACAMUtility20createRuntimeOptionsEv,
                            __ZN20ACAMPerformanceModelC1EP29ACAMPerformanceModelParameterP19ACAMCommonParameterP17ACAMConfiguration,
                            __ZN20ACAMPerformanceModelC2EP29ACAMPerformanceModelParameterP19ACAMCommonParameterP17ACAMConfiguration,
                            __ZN20ACAMPersistentStates8retrieveEPK4ACAM,
                            __ZN21ACAMCrossModelLibrary13convertSocToXEdddRd,
                            __ZN21ACAMCrossModelLibrary13convertSocToYEdddRd,
                            __ZN21ACAMCrossModelLibrary13convertXToSOCEddd,
                            __ZN21ACAMCrossModelLibrary13getResistanceEdddddd17ACAMElectrodeTypeRK29ACAMPerformanceModelParameterRd,
                            __ZN21ACAMCrossModelLibrary16calculateRaTableERK17ACAMConfigurationRK19ACAMCommonParameterRK29ACAMPerformanceModelParameterRK16ACAMUpdatorStateRK19NCCEvaluationResultRA15_d,
                            __ZN21ACAMCrossModelLibrary16convertXToOcpNegEdRK9dataTableIdERd,
                            __ZN21ACAMCrossModelLibrary16convertYToOcpPosEdRK9dataTableIdERd,
                            __ZN21ACAMCrossModelLibrary19getResistanceGetterEm,
                            __ZN21ACAMCrossModelLibrary20calculateApparentRssERK17ACAMConfigurationRK19ACAMCommonParameterRK29ACAMPerformanceModelParameterRK16ACAMUpdatorStateRK19NCCEvaluationResultdd,
                            __ZN21ACAMCrossModelLibrary20calculateApparentWRaERK17ACAMConfigurationRK19ACAMCommonParameterRK29ACAMPerformanceModelParameterRK16ACAMUpdatorStateRK19NCCEvaluationResult,
                            __ZN21ACAMCrossModelLibrary21calculateApparentQmaxERKN17ACAMConfiguration6Common9CellIdOCVERK19NCCEvaluationResult,
                            __ZN21ACAMCrossModelLibrary21getResistanceVersion2Edddddd17ACAMElectrodeTypeRK29ACAMPerformanceModelParameterRd,
                            __ZN21ACAMCrossModelLibrary21getSOCDependentStatesERK16ACAMBatteryStateRK16ACAMUpdatorStateRK29ACAMPerformanceModelParameterRK19ACAMCommonParameterRK17ACAMConfigurationNS_29getSOCDependentStatesSettingsER18ACAMElectrodeStateRd,
                            __ZN21ACAMCrossModelLibrary27calculateYShrinkAdjustedSOCEdddRK36ACAMPerformanceModelParameterYShrink,
                            __ZN25AugmentedBatteryHealthLib10hex2doubleERKNSt3__112basic_stringIcNS0_11char_traitsIcEENS0_9allocatorIcEEEE,
                            __ZN25AugmentedBatteryHealthLib13MainAlgorithm10augmentNCCERKNS_10SMCKeyDataERKNSt3__16vectorINS_9DailyDataENS4_9allocatorIS6_EEEE,
                            __ZN25AugmentedBatteryHealthLib13MainAlgorithm10augmentRdcERKNS_10SMCKeyDataERKNSt3__16vectorINS_9BDCWeeklyENS4_9allocatorIS6_EEEERKNS5_INS_14ACAMWeeklyDataENS7_ISC_EEEERKNS5_INS_9DailyDataENS7_ISH_EEEE,
                            __ZN25AugmentedBatteryHealthLib13MainAlgorithm11augmentQmaxERKNS_10SMCKeyDataERKNSt3__16vectorINS_9DailyDataENS4_9allocatorIS6_EEEERKNS5_INS_13ACAMDailyDataENS7_ISC_EEEE,
                            __ZN25AugmentedBatteryHealthLib13MainAlgorithm13validateInputERKNS_10SMCKeyDataERKNSt3__16vectorINS_9DailyDataENS4_9allocatorIS6_EEEERKNS5_INS_13ACAMDailyDataENS7_ISC_EEEERKNS5_INS_9BDCWeeklyENS7_ISH_EEEERKNS5_INS_14ACAMWeeklyDataENS7_ISM_EEEE,
                            __ZN25AugmentedBatteryHealthLib13MainAlgorithm15clearStateFaultEv,
                            __ZN25AugmentedBatteryHealthLib13MainAlgorithm4initEv,
                            __ZN25AugmentedBatteryHealthLib13MainAlgorithm7runOnceERKNS_10SMCKeyDataERKNSt3__16vectorINS_9DailyDataENS4_9allocatorIS6_EEEERKNS5_INS_13ACAMDailyDataENS7_ISC_EEEERKNS5_INS_9BDCWeeklyENS7_ISH_EEEERKNS5_INS_14ACAMWeeklyDataENS7_ISM_EEEE,
                            __ZN25AugmentedBatteryHealthLib13MainAlgorithmC1ENSt3__112basic_stringIcNS1_11char_traitsIcEENS1_9allocatorIcEEEE,
                            __ZN25AugmentedBatteryHealthLib13MainAlgorithmC2ENSt3__112basic_stringIcNS1_11char_traitsIcEENS1_9allocatorIcEEEE,
                            __ZN25AugmentedBatteryHealthLib13MainAlgorithmD1Ev,
                            __ZN25AugmentedBatteryHealthLib13MainAlgorithmD2Ev,
                            __ZN25AugmentedBatteryHealthLib13Serialization15createBDCWeeklyENS_9ABHWeeklyE,
                            __ZN25AugmentedBatteryHealthLib14MainParameters16getConfidenceRdcEid,
                            __ZN25AugmentedBatteryHealthLib14MainParameters17getConfidenceQmaxEid,
                            __ZN25AugmentedBatteryHealthLib14MainParameters6getOCVEdd,
                            __ZN25AugmentedBatteryHealthLib14MainParametersC1ENSt3__112basic_stringIcNS1_11char_traitsIcEENS1_9allocatorIcEEEE,
                            __ZN25AugmentedBatteryHealthLib14MainParametersC1ERNS_9QmaxParamERNS_8RdcParamERNS_8NccParamERNS_11SOCOCVParamERNS_9ABHWeeklyE,
                            __ZN25AugmentedBatteryHealthLib14MainParametersC2ENSt3__112basic_stringIcNS1_11char_traitsIcEENS1_9allocatorIcEEEE,
                            __ZN25AugmentedBatteryHealthLib14MainParametersC2ERNS_9QmaxParamERNS_8RdcParamERNS_8NccParamERNS_11SOCOCVParamERNS_9ABHWeeklyE,
                            __ZN25AugmentedBatteryHealthLib14MainParametersD1Ev,
                            __ZN25AugmentedBatteryHealthLib14MainParametersD2Ev,
                            __ZN25AugmentedBatteryHealthLib14fetchParameterENSt3__112basic_stringIcNS0_11char_traitsIcEENS0_9allocatorIcEEEERNS_9QmaxParamERNS_8RdcParamERNS_8NccParamERNS_11SOCOCVParamERNS_9ABHWeeklyE,
                            __ZN25AugmentedBatteryHealthLib15Deserialization26setDailyDataFromDictionaryEPNS_9DailyDataEPK12NSDictionaryPKdd,
                            __ZN25AugmentedBatteryHealthLib15Deserialization27setSMCKeyDataFromDictionaryEPNS_10SMCKeyDataEPK12NSDictionary,
                            __ZN25AugmentedBatteryHealthLib15Deserialization27setWeeklyDataFromDictionaryEPNS_9BDCWeeklyEPK12NSDictionary,
                            __ZN25AugmentedBatteryHealthLib15Deserialization30setACAMDailyDataFromDictionaryEPNS_13ACAMDailyDataEPK12NSDictionary,
                            __ZN25AugmentedBatteryHealthLib15Deserialization31setACAMWeeklyDataFromDictionaryEPNS_14ACAMWeeklyDataEPK12NSDictionary,
                            __ZN25AugmentedBatteryHealthLib17processRaTableRawERKNSt3__112basic_stringIcNS0_11char_traitsIcEENS0_9allocatorIcEEEE,
                            __ZN25AugmentedBatteryHealthLib19validateRunningDataEPK12NSDictionary,
                            __ZN25AugmentedBatteryHealthLib20initParametersD23ATLEv,
                            __ZN25AugmentedBatteryHealthLib20initParametersV57ATLEv,
                            __ZN25AugmentedBatteryHealthLib20initParametersV57COSEv,
                            __ZN25AugmentedBatteryHealthLib20initParametersV59ATLEv,
                            __ZN25AugmentedBatteryHealthLib20initParametersV59LGCEv,
                            __ZN25AugmentedBatteryHealthLib21initParametersV53eATLEv,
                            __ZN25AugmentedBatteryHealthLib21initParametersV53eCOSEv,
                            __ZN25AugmentedBatteryHealthLib21initParametersV53pATLEv,
                            __ZN25AugmentedBatteryHealthLib21initParametersV53pCOSEv,
                            __ZN25AugmentedBatteryHealthLib21initParametersV54eATLEv,
                            __ZN25AugmentedBatteryHealthLib21initParametersV54eLGCEv,
                            __ZN25AugmentedBatteryHealthLib21initParametersV54pATLEv,
                            __ZN25AugmentedBatteryHealthLib21initParametersV54pLGCEv,
                            __ZN25AugmentedBatteryHealthLib5Lut1DC1ERNSt3__16vectorIdNS1_9allocatorIdEEEES6_,
                            __ZN25AugmentedBatteryHealthLib5Lut1DC1Ev,
                            __ZN25AugmentedBatteryHealthLib5Lut1DC2ERNSt3__16vectorIdNS1_9allocatorIdEEEES6_,
                            __ZN25AugmentedBatteryHealthLib5Lut1DC2Ev,
                            __ZN25AugmentedBatteryHealthLib5Lut2DC1ERNSt3__16vectorIiNS1_9allocatorIiEEEERNS2_IdNS3_IdEEEERNS2_IS8_NS3_IS8_EEEE,
                            __ZN25AugmentedBatteryHealthLib5Lut2DC1Ev,
                            __ZN25AugmentedBatteryHealthLib5Lut2DC2ERNSt3__16vectorIiNS1_9allocatorIiEEEERNS2_IdNS3_IdEEEERNS2_IS8_NS3_IS8_EEEE,
                            __ZN25AugmentedBatteryHealthLib5Lut2DC2Ev,
                            __ZN29ACAMPerformanceModelParameter13_assignMemoryER17sortedUniqueArrayIdE35ACAMPerformanceModelParameterFields,
                            __ZN29ACAMPerformanceModelParameter13_assignMemoryER9dataTableIdE35ACAMPerformanceModelParameterFields,
                            __ZN29ACAMPerformanceModelParameter13_assignMemoryERPP9dataTableIdEmm35ACAMPerformanceModelParameterFields,
                            __ZN29ACAMPerformanceModelParameter13_deepCopyFromERKS_,
                            __ZN29ACAMPerformanceModelParameter14_assignAddressEv,
                            __ZN29ACAMPerformanceModelParameterC1ERS_,
                            __ZN29ACAMPerformanceModelParameterC2ERS_,
                            __ZN29ACAMPerformanceModelParameterD1Ev,
                            __ZN29ACAMPerformanceModelParameterD2Ev,
                            __ZN29ACAMPerformanceModelParameteraSERKS_,
                            __ZN4ACAM10runOneStepERK16ACAMBatteryState,
                            __ZN4ACAM12updateStatesEv,
                            __ZN4ACAM16recordStatisticsEv,
                            __ZN4ACAM19expandBatteryStatesERK10simpleListI16ACAMBatteryStateEddRS2_,
                            __ZN4ACAM26updateDynamicConfigurationERK10simpleListI11ACAMHistoryEd17ACAMExecutionModeR24ACAMDynamicConfiguration,
                            __ZN4ACAM4initE18InitializationDataP10simpleListI20ACAMPersistentStatesE,
                            __ZN4ACAM4initERK20ACAMPersistentStates,
                            __ZN4ACAM4initEddd,
                            __ZN4ACAM7preInitEPK20ACAMPersistentStatesPKN10ACAMStatus13SystemSignalsERb,
                            __ZN4ACAM7runOnceEPK16SmartBatteryDatam10SMCKeyDataP10simpleListI20ACAMPersistentStatesE,
                            __ZN4ACAMC1EP23ACAMAgingModelParameterP29ACAMPerformanceModelParameterP25ACAMAgingUpdatorParameterP14ACAMAgingTableP19ACAMCommonParameterP17ACAMConfiguration,
                            __ZN4ACAMC2EP23ACAMAgingModelParameterP29ACAMPerformanceModelParameterP25ACAMAgingUpdatorParameterP14ACAMAgingTableP19ACAMCommonParameterP17ACAMConfiguration,
                            __ZN6BACore19CommonSerialization12loadJsonFileEP8NSStringP7NSError,
                            __ZN6BACore19CommonSerialization14loadJsonStringEP8NSStringP7NSError,
                            __ZN6BACore19CommonSerialization20convertTeqIntoScalarEP6NSDataPKdd,
                            __ZN6BACore19CommonSerialization20convertTeqIntoScalarEP8NSStringPKdd,
                            __ZN6BACore19CommonSerialization22getTimestampUpperBoundEv,
                            __ZN6BACore19CommonSerialization24getCppStringFromNSStringEPK8NSString,
                            __ZN6BACore19CommonSerialization24getNSStringFromCppStringERKNSt3__112basic_stringIcNS1_11char_traitsIcEENS1_9allocatorIcEEEE,
                            __ZN6BACore19CommonSerialization26validateDataFromDictionaryEPK12NSDictionaryPK7NSArrayS6_S6_,
                            __ZN6BACore19CommonSerialization33validateDataFromDictionaryWithTeqEPK12NSDictionaryPK7NSArrayPKddS6_S6_,
                            __ZN6BACore19CommonSerialization9isBetweenEP8NSNumberS2_S2_,
                            __ZNK12LoggerModule20printAccessorByRegexENSt3__112basic_stringIcNS0_11char_traitsIcEENS0_9allocatorIcEEEES6_b,
                            __ZNK12LoggerModule9viewEntryENSt3__112basic_stringIcNS0_11char_traitsIcEENS0_9allocatorIcEEEE,
                            __ZNK14ACAMAgingModel10runOneStepEPK16ACAMBatteryStatePK18ACAMElectrodeStateR14ACAMAgingStateR14ACAMDerivative,
                            __ZNK14ACAMAgingModel10updateCBPTEdRK16ACAMBatteryStatePK18ACAMElectrodeStateRK14ACAMDerivativeS8_R14ACAMAgingState,
                            __ZNK14ACAMAgingModel11IPBGasSwellEddRd,
                            __ZNK14ACAMAgingModel12calculateSEIERK16ACAMBatteryStateRK18ACAMElectrodeStateRK14ACAMAgingStateR14ACAMDerivative,
                            __ZNK14ACAMAgingModel12forwardEulerEddRdd,
                            __ZNK14ACAMAgingModel13calculateCBPTERK16ACAMBatteryStateRK18ACAMElectrodeStateRK14ACAMAgingStateR14ACAMDerivative,
                            __ZNK14ACAMAgingModel13updateYShrinkEdRK16ACAMBatteryStatePK18ACAMElectrodeStateRK14ACAMDerivativeS8_R14ACAMAgingState,
                            __ZNK14ACAMAgingModel14updateGasSwellEdRK16ACAMBatteryStatePK18ACAMElectrodeStateRK14ACAMDerivativeS8_R14ACAMAgingState,
                            __ZNK14ACAMAgingModel15checkDerivativeERK14ACAMDerivative,
                            __ZNK14ACAMAgingModel15updateHardSwellEdRK16ACAMBatteryStatePK18ACAMElectrodeStateRK14ACAMDerivativeS8_R14ACAMAgingState,
                            __ZNK14ACAMAgingModel16calculateYShrinkERK16ACAMBatteryStateRK18ACAMElectrodeStateRK14ACAMAgingStateR14ACAMDerivative,
                            __ZNK14ACAMAgingModel16updateAgingStateEdRK16ACAMBatteryStatePK18ACAMElectrodeStateRK14ACAMDerivativeRS6_R14ACAMAgingState,
                            __ZNK14ACAMAgingModel17calculateGasSwellERK16ACAMBatteryStateRK18ACAMElectrodeStateRK14ACAMAgingStateR14ACAMDerivative,
                            __ZNK14ACAMAgingModel18calculateAgingRateERK16ACAMBatteryStateRK18ACAMElectrodeStateRK14ACAMAgingStateR14ACAMDerivative,
                            __ZNK14ACAMAgingModel18calculateHardSwellERK16ACAMBatteryStateRK18ACAMElectrodeStateRK14ACAMAgingStateR14ACAMDerivative,
                            __ZNK14ACAMAgingModel19updateAnodeCrackingEdRK16ACAMBatteryStatePK18ACAMElectrodeStateRK14ACAMDerivativeS8_R14ACAMAgingState,
                            __ZNK14ACAMAgingModel20calculateSEIVersion2ERK16ACAMBatteryStateRK18ACAMElectrodeStateRK14ACAMAgingStateR14ACAMDerivative,
                            __ZNK14ACAMAgingModel21calculateCBPTVersion2ERK16ACAMBatteryStateRK18ACAMElectrodeStateRK14ACAMAgingStateR14ACAMDerivative,
                            __ZNK14ACAMAgingModel21updateImpedanceGrowthEdRK16ACAMBatteryStatePK18ACAMElectrodeStateRK14ACAMDerivativeS8_R14ACAMAgingState,
                            __ZNK14ACAMAgingModel22calculateAnodeCrackingERK16ACAMBatteryStateRK18ACAMElectrodeStateRK14ACAMAgingStateR14ACAMDerivative,
                            __ZNK14ACAMAgingModel22updateAverageImpedanceEdRK16ACAMBatteryStatePK18ACAMElectrodeStateRK14ACAMDerivativeS8_R14ACAMAgingState,
                            __ZNK14ACAMAgingModel23updateHardSwellVersion2EdRK16ACAMBatteryStatePK18ACAMElectrodeStateRK14ACAMDerivativeS8_R14ACAMAgingState,
                            __ZNK14ACAMAgingModel24calculateImpedanceGrowthERK16ACAMBatteryStateRK18ACAMElectrodeState20ACAMCurrentDirectionRK14ACAMAgingStateR14ACAMDerivative,
                            __ZNK14ACAMAgingModel25calculateAverageImpedanceERK16ACAMBatteryStateRK18ACAMElectrodeState20ACAMCurrentDirectionRK14ACAMAgingStateR14ACAMDerivative,
                            __ZNK14ACAMAgingModel26calculateHardSwellVersion2ERK16ACAMBatteryStateRK18ACAMElectrodeStateRK14ACAMAgingStateR14ACAMDerivative,
                            __ZNK14ACAMAgingModel29calculateSEIAtGridTemperatureEddddjRd,
                            __ZNK14ACAMAgingModel30calculateAnodeCrackingVersion2ERK16ACAMBatteryStateRK18ACAMElectrodeStateRK14ACAMAgingStateR14ACAMDerivative,
                            __ZNK14ACAMAgingModel30calculateCBPTAtGridTemperatureEddddddjRdS0_S0_S0_,
                            __ZNK14ACAMAgingModel32calculateImpedanceGrowthVersion2ERK16ACAMBatteryStateRK18ACAMElectrodeState20ACAMCurrentDirectionRK14ACAMAgingStateR14ACAMDerivative,
                            __ZNK14ACAMAgingModel33calculateYShrinkAtGridTemperatureEddddjRd,
                            __ZNK14ACAMAgingModel35calculateHardSwellAtGridTemperatureEddjRd,
                            __ZNK14ACAMAgingModel37calculateSEIAtGridTemperatureVersion2EdddddjRd,
                            __ZNK14ACAMAgingModel38calculateCBPTAtGridTemperatureVersion2EdddddddjRdS0_S0_S0_,
                            __ZNK14ACAMAgingModel39calculateAnodeCrackingAtGridTemperatureEdddjRd,
                            __ZNK14ACAMAgingModel41calculateImpedanceGrowthAtGridTemperatureEddddj20ACAMCurrentDirectionRd,
                            __ZNK14ACAMAgingModel42calculateAverageImpedanceAtGridTemperatureEddddj20ACAMCurrentDirectionRd,
                            __ZNK14ACAMAgingModel43calculateHardSwellAtGridTemperatureVersion2EdddddjRd,
                            __ZNK14ACAMAgingModel47calculateAnodeCrackingAtGridTemperatureVersion2EddddjRd,
                            __ZNK14ACAMAgingModel49calculateImpedanceGrowthAtGridTemperatureVersion2Edddddj20ACAMCurrentDirectionRd,
                            __ZNK14ACAMAgingModel9trapezoidEdddRdd,
                            __ZNK14ACAMAgingModel9updateSEIEdRK16ACAMBatteryStatePK18ACAMElectrodeStateRK14ACAMDerivativeS8_R14ACAMAgingState,
                            __ZNK16ACAMAgingUpdator10runOneStepERK14ACAMAgingStateR16ACAMUpdatorState,
                            __ZNK16ACAMAgingUpdator10updateQmaxEdddRd,
                            __ZNK16ACAMAgingUpdator14getNCCVersion3E16ACAMUpdatorStatedR19NCCEvaluationResult,
                            __ZNK16ACAMAgingUpdator16getNCCAdjustmentEddddddRd,
                            __ZNK16ACAMAgingUpdator17getRawNCCVersion2EddddddddRd,
                            __ZNK16ACAMAgingUpdator25updateStoichiometryLimitsEdddRdS0_S0_S0_,
                            __ZNK16ACAMAgingUpdator25updateStoichiometryLimitsEdddddbRdS0_S0_S0_,
                            __ZNK16ACAMAgingUpdator6getOCVEdddPKdmPd,
                            __ZNK16ACAMAgingUpdator9expandOCPEdddPdS0_S0_,
                            __ZNK16ACAMAgingUpdator9getRawNCCEddddddRd,
                            __ZNK16ACAMAgingUpdator9getSOCTopEddddRd,
                            __ZNK16ACAMAgingUpdator9mergeSortEPKdS1_S1_mmPdS2_S2_Rm,
                            __ZNK16TypeErasedConfig5Entry11getInfoJsonEv,
                            __ZNK16TypeErasedConfig5Entry13getTypeStringEv,
                            __ZNK16TypeErasedConfig5Entry14getDescriptionEv,
                            __ZNK16TypeErasedConfig5Entry6accessEv,
                            __ZNK16TypeErasedConfig6Module13containsEntryENSt3__112basic_stringIcNS1_11char_traitsIcEENS1_9allocatorIcEEEE,
                            __ZNK16TypeErasedConfig6Module13getEntryNamesEv,
                            __ZNK16TypeErasedConfig6Module14containsModuleENSt3__112basic_stringIcNS1_11char_traitsIcEENS1_9allocatorIcEEEE,
                            __ZNK16TypeErasedConfig6Module17getEntryReferenceENSt3__112basic_stringIcNS1_11char_traitsIcEENS1_9allocatorIcEEEE,
                            __ZNK16TypeErasedConfig6Module17getSubmoduleNamesEv,
                            __ZNK16TypeErasedConfig6Module18getModuleReferenceENSt3__112basic_stringIcNS1_11char_traitsIcEENS1_9allocatorIcEEEE,
                            __ZNK16TypeErasedConfig6Module19getSortedEntryNamesEv,
                            __ZNK16TypeErasedConfig6Module21getSquashedSpecifiersERNSt3__16vectorINS1_12basic_stringIcNS1_11char_traitsIcEENS1_9allocatorIcEEEENS6_IS8_EEEE,
                            __ZNK16TypeErasedConfig6Module23getSortedSubModuleNamesEv,
                            __ZNK16TypeErasedConfig6Module25getSubmoduleWithSpecifierENSt3__112basic_stringIcNS1_11char_traitsIcEENS1_9allocatorIcEEEE,
                            __ZNK16TypeErasedConfig6Module5printEib,
                            __ZNK16TypeErasedConfig6Module6toJsonEb,
                            __ZNK16TypeErasedConfig6Module8containsENSt3__112basic_stringIcNS1_11char_traitsIcEENS1_9allocatorIcEEEE,
                            __ZNK16TypeErasedConfig6Module8toStringEib,
                            __ZNK16TypeErasedConfig6Module9_toStringEibbNSt3__112basic_stringIcNS1_11char_traitsIcEENS1_9allocatorIcEEEE,
                            __ZNK19LowVoltageResidency10SafeHarbor7triggerEx,
                            __ZNK19LowVoltageResidency12PIController11getSetpointEv,
                            __ZNK19LowVoltageResidency12PIController16getErrorIntegralEv,
                            __ZNK19LowVoltageResidency12PIController21exportPersistentStateERNS_15PersistentState10ControllerE,
                            __ZNK19LowVoltageResidency12PIController9getOutputEv,
                            __ZNK19LowVoltageResidency13GaugeLVRTable9DataField10AllBitsOneEv,
                            __ZNK19LowVoltageResidency13GaugeLVRTable9DataField12TotalSecondsEv,
                            __ZNK19LowVoltageResidency13GaugeLVRTable9DataField19TotalSecondsBelow3VEv,
                            __ZNK19LowVoltageResidency13GaugeLVRTable9DataField9NormalizeERA3_A3_A3_Kd,
                            __ZNK19LowVoltageResidency13GaugeLVRTable9DataField9NormalizeERKNSt3__16vectorINS3_INS3_IdNS2_9allocatorIdEEEENS4_IS6_EEEENS4_IS8_EEEE,
                            __ZNK19LowVoltageResidency13ShapeFunction10derivativeEd,
                            __ZNK19LowVoltageResidency6Linear10derivativeEd,
                            __ZNK19LowVoltageResidency6LinearclEd,
                            __ZNK19LowVoltageResidency6Policy21exportPersistentStateERNS_15PersistentStateE,
                            __ZNK19LowVoltageResidency9Quadratic10derivativeEd,
                            __ZNK19LowVoltageResidency9QuadraticclEd,
                            __ZNK20ACAMPerformanceModel10runOneStepEPK16ACAMBatteryStateRK16ACAMUpdatorStateR18ACAMElectrodeState,
                            __ZNK20ACAMPersistentStates7restoreEP4ACAM,
                            __ZNK25AugmentedBatteryHealthLib5Lut1D6lookUpEd,
                            __ZNK25AugmentedBatteryHealthLib5Lut2D8getValueEid,
                            __ZNK4ACAM24checkAgingBoundViolationEv,
                            __ZTI10BaseLogger, __ZTI13CafeLVRLogger,
                            __ZTIN19LowVoltageResidency13ShapeFunctionE,
                            __ZTIN19LowVoltageResidency18PolicySettingStateILNS_8PolicyIdE0EEE,
                            __ZTIN19LowVoltageResidency18PolicySettingStateILNS_8PolicyIdE1EEE,
                            __ZTIN19LowVoltageResidency18PolicySettingStateILNS_8PolicyIdE2EEE,
                            __ZTIN19LowVoltageResidency6LinearE,
                            __ZTIN19LowVoltageResidency9QuadraticE,
                            __ZTS10BaseLogger, __ZTS13CafeLVRLogger,
                            __ZTSN19LowVoltageResidency13ShapeFunctionE,
                            __ZTSN19LowVoltageResidency18PolicySettingStateILNS_8PolicyIdE0EEE,
                            __ZTSN19LowVoltageResidency18PolicySettingStateILNS_8PolicyIdE1EEE,
                            __ZTSN19LowVoltageResidency18PolicySettingStateILNS_8PolicyIdE2EEE,
                            __ZTSN19LowVoltageResidency6LinearE,
                            __ZTSN19LowVoltageResidency9QuadraticE,
                            __ZTV10BaseLogger, __ZTV13CafeLVRLogger,
                            __ZTVN19LowVoltageResidency13ShapeFunctionE,
                            __ZTVN19LowVoltageResidency18PolicySettingStateILNS_8PolicyIdE0EEE,
                            __ZTVN19LowVoltageResidency18PolicySettingStateILNS_8PolicyIdE1EEE,
                            __ZTVN19LowVoltageResidency18PolicySettingStateILNS_8PolicyIdE2EEE,
                            __ZTVN19LowVoltageResidency6LinearE,
                            __ZTVN19LowVoltageResidency9QuadraticE,
                            _createLogger, _gACAMAgingModelParameterD23ATL,
                            _gACAMAgingModelParameterD37ATL,
                            _gACAMAgingModelParameterD37LGC,
                            _gACAMAgingModelParameterD38ATL,
                            _gACAMAgingModelParameterD38LGC,
                            _gACAMAgingModelParameterD47ATL,
                            _gACAMAgingModelParameterD47COS,
                            _gACAMAgingModelParameterD48ATL,
                            _gACAMAgingModelParameterD48LGC,
                            _gACAMAgingModelParameterD83ATL,
                            _gACAMAgingModelParameterD83COS,
                            _gACAMAgingModelParameterD84ATL,
                            _gACAMAgingModelParameterD84LGC,
                            _gACAMAgingModelParameterD93ATL,
                            _gACAMAgingModelParameterD94ATL,
                            _gACAMAgingModelParameterD94LGC,
                            _gACAMAgingModelParameterDefault,
                            _gACAMAgingModelParameterN227bATL,
                            _gACAMAgingModelParameterN227bMUR,
                            _gACAMAgingModelParameterV53eATL,
                            _gACAMAgingModelParameterV53eCOS,
                            _gACAMAgingModelParameterV53pATL,
                            _gACAMAgingModelParameterV53pCOS,
                            _gACAMAgingModelParameterV54eATL,
                            _gACAMAgingModelParameterV54eLGC,
                            _gACAMAgingModelParameterV54pATL,
                            _gACAMAgingModelParameterV54pLGC,
                            _gACAMAgingModelParameterV57ATL,
                            _gACAMAgingModelParameterV57COS,
                            _gACAMAgingModelParameterV59ATL,
                            _gACAMAgingModelParameterV59LGC,
                            _gACAMAgingTableD23ATL, _gACAMAgingTableD37ATL,
                            _gACAMAgingTableD37LGC, _gACAMAgingTableD38ATL,
                            _gACAMAgingTableD38LGC, _gACAMAgingTableD47ATL,
                            _gACAMAgingTableD47COS, _gACAMAgingTableD48ATL,
                            _gACAMAgingTableD48LGC, _gACAMAgingTableD83ATL,
                            _gACAMAgingTableD83COS, _gACAMAgingTableD84ATL,
                            _gACAMAgingTableD84LGC, _gACAMAgingTableD93ATL,
                            _gACAMAgingTableD94ATL, _gACAMAgingTableD94LGC,
                            _gACAMAgingTableDefault, _gACAMAgingTableN227bATL,
                            _gACAMAgingTableN227bMUR, _gACAMAgingTableV53eATL,
                            _gACAMAgingTableV53eCOS, _gACAMAgingTableV53pATL,
                            _gACAMAgingTableV53pCOS, _gACAMAgingTableV54eATL,
                            _gACAMAgingTableV54eLGC, _gACAMAgingTableV54pATL,
                            _gACAMAgingTableV54pLGC, _gACAMAgingTableV57ATL,
                            _gACAMAgingTableV57COS, _gACAMAgingTableV59ATL,
                            _gACAMAgingTableV59LGC,
                            _gACAMAgingUpdatorParameterD23ATL,
                            _gACAMAgingUpdatorParameterD37ATL,
                            _gACAMAgingUpdatorParameterD37LGC,
                            _gACAMAgingUpdatorParameterD38ATL,
                            _gACAMAgingUpdatorParameterD38LGC,
                            _gACAMAgingUpdatorParameterD47ATL,
                            _gACAMAgingUpdatorParameterD47COS,
                            _gACAMAgingUpdatorParameterD48ATL,
                            _gACAMAgingUpdatorParameterD48LGC,
                            _gACAMAgingUpdatorParameterD83ATL,
                            _gACAMAgingUpdatorParameterD83COS,
                            _gACAMAgingUpdatorParameterD84ATL,
                            _gACAMAgingUpdatorParameterD84LGC,
                            _gACAMAgingUpdatorParameterD93ATL,
                            _gACAMAgingUpdatorParameterD94ATL,
                            _gACAMAgingUpdatorParameterD94LGC,
                            _gACAMAgingUpdatorParameterDefault,
                            _gACAMAgingUpdatorParameterN227bATL,
                            _gACAMAgingUpdatorParameterN227bMUR,
                            _gACAMAgingUpdatorParameterV53eATL,
                            _gACAMAgingUpdatorParameterV53eCOS,
                            _gACAMAgingUpdatorParameterV53pATL,
                            _gACAMAgingUpdatorParameterV53pCOS,
                            _gACAMAgingUpdatorParameterV54eATL,
                            _gACAMAgingUpdatorParameterV54eLGC,
                            _gACAMAgingUpdatorParameterV54pATL,
                            _gACAMAgingUpdatorParameterV54pLGC,
                            _gACAMAgingUpdatorParameterV57ATL,
                            _gACAMAgingUpdatorParameterV57COS,
                            _gACAMAgingUpdatorParameterV59ATL,
                            _gACAMAgingUpdatorParameterV59LGC,
                            _gACAMCommonParameterD23ATL,
                            _gACAMCommonParameterD37ATL,
                            _gACAMCommonParameterD37LGC,
                            _gACAMCommonParameterD38ATL,
                            _gACAMCommonParameterD38LGC,
                            _gACAMCommonParameterD47ATL,
                            _gACAMCommonParameterD47COS,
                            _gACAMCommonParameterD48ATL,
                            _gACAMCommonParameterD48LGC,
                            _gACAMCommonParameterD83ATL,
                            _gACAMCommonParameterD83COS,
                            _gACAMCommonParameterD84ATL,
                            _gACAMCommonParameterD84LGC,
                            _gACAMCommonParameterD93ATL,
                            _gACAMCommonParameterD94ATL,
                            _gACAMCommonParameterD94LGC,
                            _gACAMCommonParameterDefault,
                            _gACAMCommonParameterN227bATL,
                            _gACAMCommonParameterN227bMUR,
                            _gACAMCommonParameterV53eATL,
                            _gACAMCommonParameterV53eCOS,
                            _gACAMCommonParameterV53pATL,
                            _gACAMCommonParameterV53pCOS,
                            _gACAMCommonParameterV54eATL,
                            _gACAMCommonParameterV54eLGC,
                            _gACAMCommonParameterV54pATL,
                            _gACAMCommonParameterV54pLGC,
                            _gACAMCommonParameterV57ATL,
                            _gACAMCommonParameterV57COS,
                            _gACAMCommonParameterV59ATL,
                            _gACAMCommonParameterV59LGC,
                            _gACAMConfigurationD23ATL, _gACAMConfigurationD37ATL,
                            _gACAMConfigurationD37LGC, _gACAMConfigurationD38ATL,
                            _gACAMConfigurationD38LGC, _gACAMConfigurationD47ATL,
                            _gACAMConfigurationD47COS, _gACAMConfigurationD48ATL,
                            _gACAMConfigurationD48LGC, _gACAMConfigurationD83ATL,
                            _gACAMConfigurationD83COS, _gACAMConfigurationD84ATL,
                            _gACAMConfigurationD84LGC, _gACAMConfigurationD93ATL,
                            _gACAMConfigurationD94ATL, _gACAMConfigurationD94LGC,
                            _gACAMConfigurationDefault,
                            _gACAMConfigurationN227bATL,
                            _gACAMConfigurationN227bMUR,
                            _gACAMConfigurationV53eATL,
                            _gACAMConfigurationV53eCOS,
                            _gACAMConfigurationV53pATL,
                            _gACAMConfigurationV53pCOS,
                            _gACAMConfigurationV54eATL,
                            _gACAMConfigurationV54eLGC,
                            _gACAMConfigurationV54pATL,
                            _gACAMConfigurationV54pLGC,
                            _gACAMConfigurationV57ATL, _gACAMConfigurationV57COS,
                            _gACAMConfigurationV59ATL, _gACAMConfigurationV59LGC,
                            _gCRateChgGridRawDataD23ATL,
                            _gCRateChgGridRawDataD37ATL,
                            _gCRateChgGridRawDataD37LGC,
                            _gCRateChgGridRawDataD38ATL,
                            _gCRateChgGridRawDataD38LGC,
                            _gCRateChgGridRawDataD47ATL,
                            _gCRateChgGridRawDataD47COS,
                            _gCRateChgGridRawDataD48ATL,
                            _gCRateChgGridRawDataD48LGC,
                            _gCRateChgGridRawDataD83ATL,
                            _gCRateChgGridRawDataD83COS,
                            _gCRateChgGridRawDataD84ATL,
                            _gCRateChgGridRawDataD84LGC,
                            _gCRateChgGridRawDataD93ATL,
                            _gCRateChgGridRawDataD94ATL,
                            _gCRateChgGridRawDataD94LGC,
                            _gCRateChgGridRawDataDefault,
                            _gCRateChgGridRawDataN227bATL,
                            _gCRateChgGridRawDataN227bMUR,
                            _gCRateChgGridRawDataV53eATL,
                            _gCRateChgGridRawDataV53eCOS,
                            _gCRateChgGridRawDataV53pATL,
                            _gCRateChgGridRawDataV53pCOS,
                            _gCRateChgGridRawDataV54eATL,
                            _gCRateChgGridRawDataV54eLGC,
                            _gCRateChgGridRawDataV54pATL,
                            _gCRateChgGridRawDataV54pLGC,
                            _gCRateChgGridRawDataV57ATL,
                            _gCRateChgGridRawDataV57COS,
                            _gCRateChgGridRawDataV59ATL,
                            _gCRateChgGridRawDataV59LGC,
                            _gCRateDcgGridRawDataD23ATL,
                            _gCRateDcgGridRawDataD37ATL,
                            _gCRateDcgGridRawDataD37LGC,
                            _gCRateDcgGridRawDataD38ATL,
                            _gCRateDcgGridRawDataD38LGC,
                            _gCRateDcgGridRawDataD47ATL,
                            _gCRateDcgGridRawDataD47COS,
                            _gCRateDcgGridRawDataD48ATL,
                            _gCRateDcgGridRawDataD48LGC,
                            _gCRateDcgGridRawDataD83ATL,
                            _gCRateDcgGridRawDataD83COS,
                            _gCRateDcgGridRawDataD84ATL,
                            _gCRateDcgGridRawDataD84LGC,
                            _gCRateDcgGridRawDataD93ATL,
                            _gCRateDcgGridRawDataD94ATL,
                            _gCRateDcgGridRawDataD94LGC,
                            _gCRateDcgGridRawDataDefault,
                            _gCRateDcgGridRawDataN227bATL,
                            _gCRateDcgGridRawDataN227bMUR,
                            _gCRateDcgGridRawDataV53eATL,
                            _gCRateDcgGridRawDataV53eCOS,
                            _gCRateDcgGridRawDataV53pATL,
                            _gCRateDcgGridRawDataV53pCOS,
                            _gCRateDcgGridRawDataV54eATL,
                            _gCRateDcgGridRawDataV54eLGC,
                            _gCRateDcgGridRawDataV54pATL,
                            _gCRateDcgGridRawDataV54pLGC,
                            _gCRateDcgGridRawDataV57ATL,
                            _gCRateDcgGridRawDataV57COS,
                            _gCRateDcgGridRawDataV59ATL,
                            _gCRateDcgGridRawDataV59LGC, _gCRateDcgRawDataD23ATL,
                            _gCRateDcgRawDataD37ATL, _gCRateDcgRawDataD37LGC,
                            _gCRateDcgRawDataD38ATL, _gCRateDcgRawDataD38LGC,
                            _gCRateDcgRawDataD47ATL, _gCRateDcgRawDataD47COS,
                            _gCRateDcgRawDataD48ATL, _gCRateDcgRawDataD48LGC,
                            _gCRateDcgRawDataD83ATL, _gCRateDcgRawDataD83COS,
                            _gCRateDcgRawDataD84ATL, _gCRateDcgRawDataD84LGC,
                            _gCRateDcgRawDataD93ATL, _gCRateDcgRawDataD94ATL,
                            _gCRateDcgRawDataD94LGC, _gCRateDcgRawDataDefault,
                            _gCRateDcgRawDataN227bATL, _gCRateDcgRawDataN227bMUR,
                            _gCRateDcgRawDataV53eATL, _gCRateDcgRawDataV53eCOS,
                            _gCRateDcgRawDataV53pATL, _gCRateDcgRawDataV53pCOS,
                            _gCRateDcgRawDataV54eATL, _gCRateDcgRawDataV54eLGC,
                            _gCRateDcgRawDataV54pATL, _gCRateDcgRawDataV54pLGC,
                            _gCRateDcgRawDataV57ATL, _gCRateDcgRawDataV57COS,
                            _gCRateDcgRawDataV59ATL, _gCRateDcgRawDataV59LGC,
                            _gOcpNegRawDataD23ATL, _gOcpNegRawDataD37ATL,
                            _gOcpNegRawDataD37LGC, _gOcpNegRawDataD38ATL,
                            _gOcpNegRawDataD38LGC, _gOcpNegRawDataD47ATL,
                            _gOcpNegRawDataD47COS, _gOcpNegRawDataD48ATL,
                            _gOcpNegRawDataD48LGC, _gOcpNegRawDataD83ATL,
                            _gOcpNegRawDataD83COS, _gOcpNegRawDataD84ATL,
                            _gOcpNegRawDataD84LGC, _gOcpNegRawDataD93ATL,
                            _gOcpNegRawDataD94ATL, _gOcpNegRawDataD94LGC,
                            _gOcpNegRawDataDefault, _gOcpNegRawDataN227bATL,
                            _gOcpNegRawDataN227bMUR, _gOcpNegRawDataV53eATL,
                            _gOcpNegRawDataV53eCOS, _gOcpNegRawDataV53pATL,
                            _gOcpNegRawDataV53pCOS, _gOcpNegRawDataV54eATL,
                            _gOcpNegRawDataV54eLGC, _gOcpNegRawDataV54pATL,
                            _gOcpNegRawDataV54pLGC, _gOcpNegRawDataV57ATL,
                            _gOcpNegRawDataV57COS, _gOcpNegRawDataV59ATL,
                            _gOcpNegRawDataV59LGC, _gOcpPosRawDataD23ATL,
                            _gOcpPosRawDataD37ATL, _gOcpPosRawDataD37LGC,
                            _gOcpPosRawDataD38ATL, _gOcpPosRawDataD38LGC,
                            _gOcpPosRawDataD47ATL, _gOcpPosRawDataD47COS,
                            _gOcpPosRawDataD48ATL, _gOcpPosRawDataD48LGC,
                            _gOcpPosRawDataD83ATL, _gOcpPosRawDataD83COS,
                            _gOcpPosRawDataD84ATL, _gOcpPosRawDataD84LGC,
                            _gOcpPosRawDataD93ATL, _gOcpPosRawDataD94ATL,
                            _gOcpPosRawDataD94LGC, _gOcpPosRawDataDefault,
                            _gOcpPosRawDataN227bATL, _gOcpPosRawDataN227bMUR,
                            _gOcpPosRawDataV53eATL, _gOcpPosRawDataV53eCOS,
                            _gOcpPosRawDataV53pATL, _gOcpPosRawDataV53pCOS,
                            _gOcpPosRawDataV54eATL, _gOcpPosRawDataV54eLGC,
                            _gOcpPosRawDataV54pATL, _gOcpPosRawDataV54pLGC,
                            _gOcpPosRawDataV57ATL, _gOcpPosRawDataV57COS,
                            _gOcpPosRawDataV59ATL, _gOcpPosRawDataV59LGC,
                            _gResistanceNegChgRawDataD23ATL,
                            _gResistanceNegChgRawDataD37ATL,
                            _gResistanceNegChgRawDataD37LGC,
                            _gResistanceNegChgRawDataD38ATL,
                            _gResistanceNegChgRawDataD38LGC,
                            _gResistanceNegChgRawDataD47ATL,
                            _gResistanceNegChgRawDataD47COS,
                            _gResistanceNegChgRawDataD48ATL,
                            _gResistanceNegChgRawDataD48LGC,
                            _gResistanceNegChgRawDataD83ATL,
                            _gResistanceNegChgRawDataD83COS,
                            _gResistanceNegChgRawDataD84ATL,
                            _gResistanceNegChgRawDataD84LGC,
                            _gResistanceNegChgRawDataD93ATL,
                            _gResistanceNegChgRawDataD94ATL,
                            _gResistanceNegChgRawDataD94LGC,
                            _gResistanceNegChgRawDataDefault,
                            _gResistanceNegChgRawDataN227bATL,
                            _gResistanceNegChgRawDataN227bMUR,
                            _gResistanceNegChgRawDataV53eATL,
                            _gResistanceNegChgRawDataV53eCOS,
                            _gResistanceNegChgRawDataV53pATL,
                            _gResistanceNegChgRawDataV53pCOS,
                            _gResistanceNegChgRawDataV54eATL,
                            _gResistanceNegChgRawDataV54eLGC,
                            _gResistanceNegChgRawDataV54pATL,
                            _gResistanceNegChgRawDataV54pLGC,
                            _gResistanceNegChgRawDataV57ATL,
                            _gResistanceNegChgRawDataV57COS,
                            _gResistanceNegChgRawDataV59ATL,
                            _gResistanceNegChgRawDataV59LGC,
                            _gResistanceNegDcgRawDataD23ATL,
                            _gResistanceNegDcgRawDataD37ATL,
                            _gResistanceNegDcgRawDataD37LGC,
                            _gResistanceNegDcgRawDataD38ATL,
                            _gResistanceNegDcgRawDataD38LGC,
                            _gResistanceNegDcgRawDataD47ATL,
                            _gResistanceNegDcgRawDataD47COS,
                            _gResistanceNegDcgRawDataD48ATL,
                            _gResistanceNegDcgRawDataD48LGC,
                            _gResistanceNegDcgRawDataD83ATL,
                            _gResistanceNegDcgRawDataD83COS,
                            _gResistanceNegDcgRawDataD84ATL,
                            _gResistanceNegDcgRawDataD84LGC,
                            _gResistanceNegDcgRawDataD93ATL,
                            _gResistanceNegDcgRawDataD94ATL,
                            _gResistanceNegDcgRawDataD94LGC,
                            _gResistanceNegDcgRawDataDefault,
                            _gResistanceNegDcgRawDataN227bATL,
                            _gResistanceNegDcgRawDataN227bMUR,
                            _gResistanceNegDcgRawDataV53eATL,
                            _gResistanceNegDcgRawDataV53eCOS,
                            _gResistanceNegDcgRawDataV53pATL,
                            _gResistanceNegDcgRawDataV53pCOS,
                            _gResistanceNegDcgRawDataV54eATL,
                            _gResistanceNegDcgRawDataV54eLGC,
                            _gResistanceNegDcgRawDataV54pATL,
                            _gResistanceNegDcgRawDataV54pLGC,
                            _gResistanceNegDcgRawDataV57ATL,
                            _gResistanceNegDcgRawDataV57COS,
                            _gResistanceNegDcgRawDataV59ATL,
                            _gResistanceNegDcgRawDataV59LGC,
                            _gResistancePosChgRawDataD23ATL,
                            _gResistancePosChgRawDataD37ATL,
                            _gResistancePosChgRawDataD37LGC,
                            _gResistancePosChgRawDataD38ATL,
                            _gResistancePosChgRawDataD38LGC,
                            _gResistancePosChgRawDataD47ATL,
                            _gResistancePosChgRawDataD47COS,
                            _gResistancePosChgRawDataD48ATL,
                            _gResistancePosChgRawDataD48LGC,
                            _gResistancePosChgRawDataD83ATL,
                            _gResistancePosChgRawDataD83COS,
                            _gResistancePosChgRawDataD84ATL,
                            _gResistancePosChgRawDataD84LGC,
                            _gResistancePosChgRawDataD93ATL,
                            _gResistancePosChgRawDataD94ATL,
                            _gResistancePosChgRawDataD94LGC,
                            _gResistancePosChgRawDataDefault,
                            _gResistancePosChgRawDataN227bATL,
                            _gResistancePosChgRawDataN227bMUR,
                            _gResistancePosChgRawDataV53eATL,
                            _gResistancePosChgRawDataV53eCOS,
                            _gResistancePosChgRawDataV53pATL,
                            _gResistancePosChgRawDataV53pCOS,
                            _gResistancePosChgRawDataV54eATL,
                            _gResistancePosChgRawDataV54eLGC,
                            _gResistancePosChgRawDataV54pATL,
                            _gResistancePosChgRawDataV54pLGC,
                            _gResistancePosChgRawDataV57ATL,
                            _gResistancePosChgRawDataV57COS,
                            _gResistancePosChgRawDataV59ATL,
                            _gResistancePosChgRawDataV59LGC,
                            _gResistancePosDcgRawDataD23ATL,
                            _gResistancePosDcgRawDataD37ATL,
                            _gResistancePosDcgRawDataD37LGC,
                            _gResistancePosDcgRawDataD38ATL,
                            _gResistancePosDcgRawDataD38LGC,
                            _gResistancePosDcgRawDataD47ATL,
                            _gResistancePosDcgRawDataD47COS,
                            _gResistancePosDcgRawDataD48ATL,
                            _gResistancePosDcgRawDataD48LGC,
                            _gResistancePosDcgRawDataD83ATL,
                            _gResistancePosDcgRawDataD83COS,
                            _gResistancePosDcgRawDataD84ATL,
                            _gResistancePosDcgRawDataD84LGC,
                            _gResistancePosDcgRawDataD93ATL,
                            _gResistancePosDcgRawDataD94ATL,
                            _gResistancePosDcgRawDataD94LGC,
                            _gResistancePosDcgRawDataDefault,
                            _gResistancePosDcgRawDataN227bATL,
                            _gResistancePosDcgRawDataN227bMUR,
                            _gResistancePosDcgRawDataV53eATL,
                            _gResistancePosDcgRawDataV53eCOS,
                            _gResistancePosDcgRawDataV53pATL,
                            _gResistancePosDcgRawDataV53pCOS,
                            _gResistancePosDcgRawDataV54eATL,
                            _gResistancePosDcgRawDataV54eLGC,
                            _gResistancePosDcgRawDataV54pATL,
                            _gResistancePosDcgRawDataV54pLGC,
                            _gResistancePosDcgRawDataV57ATL,
                            _gResistancePosDcgRawDataV57COS,
                            _gResistancePosDcgRawDataV59ATL,
                            _gResistancePosDcgRawDataV59LGC,
                            _gSocGridRawDataD23ATL, _gSocGridRawDataD37ATL,
                            _gSocGridRawDataD37LGC, _gSocGridRawDataD38ATL,
                            _gSocGridRawDataD38LGC, _gSocGridRawDataD47ATL,
                            _gSocGridRawDataD47COS, _gSocGridRawDataD48ATL,
                            _gSocGridRawDataD48LGC, _gSocGridRawDataD83ATL,
                            _gSocGridRawDataD83COS, _gSocGridRawDataD84ATL,
                            _gSocGridRawDataD84LGC, _gSocGridRawDataD93ATL,
                            _gSocGridRawDataD94ATL, _gSocGridRawDataD94LGC,
                            _gSocGridRawDataDefault, _gSocGridRawDataN227bATL,
                            _gSocGridRawDataN227bMUR, _gSocGridRawDataV53eATL,
                            _gSocGridRawDataV53eCOS, _gSocGridRawDataV53pATL,
                            _gSocGridRawDataV53pCOS, _gSocGridRawDataV54eATL,
                            _gSocGridRawDataV54eLGC, _gSocGridRawDataV54pATL,
                            _gSocGridRawDataV54pLGC, _gSocGridRawDataV57ATL,
                            _gSocGridRawDataV57COS, _gSocGridRawDataV59ATL,
                            _gSocGridRawDataV59LGC, _gTempGridRawDataD23ATL,
                            _gTempGridRawDataD37ATL, _gTempGridRawDataD37LGC,
                            _gTempGridRawDataD38ATL, _gTempGridRawDataD38LGC,
                            _gTempGridRawDataD47ATL, _gTempGridRawDataD47COS,
                            _gTempGridRawDataD48ATL, _gTempGridRawDataD48LGC,
                            _gTempGridRawDataD83ATL, _gTempGridRawDataD83COS,
                            _gTempGridRawDataD84ATL, _gTempGridRawDataD84LGC,
                            _gTempGridRawDataD93ATL, _gTempGridRawDataD94ATL,
                            _gTempGridRawDataD94LGC, _gTempGridRawDataDefault,
                            _gTempGridRawDataN227bATL, _gTempGridRawDataN227bMUR,
                            _gTempGridRawDataV53eATL, _gTempGridRawDataV53eCOS,
                            _gTempGridRawDataV53pATL, _gTempGridRawDataV53pCOS,
                            _gTempGridRawDataV54eATL, _gTempGridRawDataV54eLGC,
                            _gTempGridRawDataV54pATL, _gTempGridRawDataV54pLGC,
                            _gTempGridRawDataV57ATL, _gTempGridRawDataV57COS,
                            _gTempGridRawDataV59ATL, _gTempGridRawDataV59LGC,
                            _gWRaFreshRawDataD23ATL, _gWRaFreshRawDataD37ATL,
                            _gWRaFreshRawDataD37LGC, _gWRaFreshRawDataD38ATL,
                            _gWRaFreshRawDataD38LGC, _gWRaFreshRawDataD47ATL,
                            _gWRaFreshRawDataD47COS, _gWRaFreshRawDataD48ATL,
                            _gWRaFreshRawDataD48LGC, _gWRaFreshRawDataD83ATL,
                            _gWRaFreshRawDataD83COS, _gWRaFreshRawDataD84ATL,
                            _gWRaFreshRawDataD84LGC, _gWRaFreshRawDataD93ATL,
                            _gWRaFreshRawDataD94ATL, _gWRaFreshRawDataD94LGC,
                            _gWRaFreshRawDataDefault, _gWRaFreshRawDataN227bATL,
                            _gWRaFreshRawDataN227bMUR, _gWRaFreshRawDataV53eATL,
                            _gWRaFreshRawDataV53eCOS, _gWRaFreshRawDataV53pATL,
                            _gWRaFreshRawDataV53pCOS, _gWRaFreshRawDataV54eATL,
                            _gWRaFreshRawDataV54eLGC, _gWRaFreshRawDataV54pATL,
                            _gWRaFreshRawDataV54pLGC, _gWRaFreshRawDataV57ATL,
                            _gWRaFreshRawDataV57COS, _gWRaFreshRawDataV59ATL,
                            _gWRaFreshRawDataV59LGC, _gWRcFreshRawDataD23ATL,
                            _gWRcFreshRawDataD37ATL, _gWRcFreshRawDataD37LGC,
                            _gWRcFreshRawDataD38ATL, _gWRcFreshRawDataD38LGC,
                            _gWRcFreshRawDataD47ATL, _gWRcFreshRawDataD47COS,
                            _gWRcFreshRawDataD48ATL, _gWRcFreshRawDataD48LGC,
                            _gWRcFreshRawDataD83ATL, _gWRcFreshRawDataD83COS,
                            _gWRcFreshRawDataD84ATL, _gWRcFreshRawDataD84LGC,
                            _gWRcFreshRawDataD93ATL, _gWRcFreshRawDataD94ATL,
                            _gWRcFreshRawDataD94LGC, _gWRcFreshRawDataDefault,
                            _gWRcFreshRawDataN227bATL, _gWRcFreshRawDataN227bMUR,
                            _gWRcFreshRawDataV53eATL, _gWRcFreshRawDataV53eCOS,
                            _gWRcFreshRawDataV53pATL, _gWRcFreshRawDataV53pCOS,
                            _gWRcFreshRawDataV54eATL, _gWRcFreshRawDataV54eLGC,
                            _gWRcFreshRawDataV54pATL, _gWRcFreshRawDataV54pLGC,
                            _gWRcFreshRawDataV57ATL, _gWRcFreshRawDataV57COS,
                            _gWRcFreshRawDataV59ATL, _gWRcFreshRawDataV59LGC,
                            _gYShrinkD23ATL, _gYShrinkD37ATL, _gYShrinkD37LGC,
                            _gYShrinkD38ATL, _gYShrinkD38LGC, _gYShrinkD47ATL,
                            _gYShrinkD47COS, _gYShrinkD48ATL, _gYShrinkD48LGC,
                            _gYShrinkD83ATL, _gYShrinkD83COS, _gYShrinkD84ATL,
                            _gYShrinkD84LGC, _gYShrinkD93ATL, _gYShrinkD94ATL,
                            _gYShrinkD94LGC, _gYShrinkDefault, _gYShrinkN227bATL,
                            _gYShrinkN227bMUR, _gYShrinkV53eATL, _gYShrinkV53eCOS,
                            _gYShrinkV53pATL, _gYShrinkV53pCOS, _gYShrinkV54eATL,
                            _gYShrinkV54eLGC, _gYShrinkV54pATL, _gYShrinkV54pLGC,
                            _gYShrinkV57ATL, _gYShrinkV57COS, _gYShrinkV59ATL,
                            _gYShrinkV59LGC ]
    objc-classes:         [ AdaptiveOCV, AugmentedBatteryHealth, CafeLVR, CafeSwell,
                            OnDeviceACAM, SampleAlgorithm ]
    objc-ivars:           [ AdaptiveOCV._algoDescription,
                            AdaptiveOCV._bdcOutputCache,
                            AdaptiveOCV._dataOnDemand,
                            AdaptiveOCV._freshInitNeeded, AdaptiveOCV._logger,
                            AdaptiveOCV._mlOcvModelCache, AdaptiveOCV._model,
                            AdaptiveOCV._name, AdaptiveOCV._outputReady,
                            AdaptiveOCV._persistentStateCache,
                            AdaptiveOCV._programName, AdaptiveOCV._runPeriod,
                            AdaptiveOCV._runType, AdaptiveOCV._version,
                            AugmentedBatteryHealth._algoDescription,
                            AugmentedBatteryHealth._bdc_output_cache,
                            AugmentedBatteryHealth._bdc_output_ready,
                            AugmentedBatteryHealth._dataOnDemand,
                            AugmentedBatteryHealth._errorBit,
                            AugmentedBatteryHealth._freshInitNeeded,
                            AugmentedBatteryHealth._logger,
                            AugmentedBatteryHealth._model,
                            AugmentedBatteryHealth._name,
                            AugmentedBatteryHealth._program_code,
                            AugmentedBatteryHealth._runPeriod,
                            AugmentedBatteryHealth._runType,
                            AugmentedBatteryHealth._version,
                            CafeLVR._algoDescription, CafeLVR._dataOnDemand,
                            CafeLVR._freshInitNeeded, CafeLVR._input_overwrite,
                            CafeLVR._logger, CafeLVR._lvr_offset,
                            CafeLVR._lvr_weights, CafeLVR._model, CafeLVR._name,
                            CafeLVR._previous_input, CafeLVR._runPeriod,
                            CafeLVR._runType, CafeLVR._snapshot,
                            CafeLVR._state_retriever,
                            CafeLVR._use_input_overwrite, CafeLVR._version,
                            CafeSwell._algoDescription, CafeSwell._dataOnDemand,
                            CafeSwell._freshInitNeeded, CafeSwell._logger,
                            CafeSwell._model, CafeSwell._name,
                            CafeSwell._previousACAMInitializationTime,
                            CafeSwell._previousFreshInitializationTime,
                            CafeSwell._runPeriod, CafeSwell._runType,
                            CafeSwell._runningInfo, CafeSwell._version,
                            OnDeviceACAM._algoDescription,
                            OnDeviceACAM._bdcOutputBuffer,
                            OnDeviceACAM._dataOnDemand,
                            OnDeviceACAM._debugLogBuffer,
                            OnDeviceACAM._freshInitInfo,
                            OnDeviceACAM._freshInitNeeded,
                            OnDeviceACAM._lastBDCOutputTimestamp,
                            OnDeviceACAM._logger, OnDeviceACAM._model,
                            OnDeviceACAM._name, OnDeviceACAM._runPeriod,
                            OnDeviceACAM._runTimeOptions, OnDeviceACAM._runType,
                            OnDeviceACAM._runningInfo, OnDeviceACAM._version,
                            SampleAlgorithm._algoDescription,
                            SampleAlgorithm._freshInitNeeded,
                            SampleAlgorithm._logger, SampleAlgorithm._name,
                            SampleAlgorithm._runPeriod, SampleAlgorithm._runType,
                            SampleAlgorithm._version,
                            SampleAlgorithm.dataOnDemand ]
    weak-def-symbols:     [ __ZN12AbstractTree13lexinumericalINSt3__112basic_stringIcNS1_11char_traitsIcEENS1_9allocatorIcEEEEEEbRKT_SA_,
                            __ZN12AbstractTree5ErrorI12LoggerModuleE1tE,
                            __ZN12AbstractTree7WarningINS_4TreeIJ8LogEntryINSt3__17variantIJfdNS3_13unordered_mapINS3_12basic_stringIcNS3_11char_traitsIcEENS3_9allocatorIcEEEEdNS3_4hashISB_EENS3_8equal_toISB_EENS9_INS3_4pairIKSB_dEEEEEEEEE10PropertiesEEEEE1tE,
                            __ZN12AbstractTree7WarningINS_4TreeIJ8LogEntryINSt3__17variantIJfdNS3_13unordered_mapINS3_12basic_stringIcNS3_11char_traitsIcEENS3_9allocatorIcEEEEdNS3_4hashISB_EENS3_8equal_toISB_EENS9_INS3_4pairIKSB_dEEEEEEEEE10PropertiesEEEEE6silentE,
                            __ZN16TypeErasedConfig6option13expand_vectorE,
                            __ZN16TypeErasedConfig6option18print_empty_moduleE,
                            __ZN16TypeErasedConfig6option9log_levelE,
                            __ZN19LowVoltageResidency6PolicyC1ILNS_8PolicyIdE0EEENSt3__117integral_constantIS2_XT_EEE,
                            __ZN19LowVoltageResidency6PolicyC1ILNS_8PolicyIdE1EEENSt3__117integral_constantIS2_XT_EEE,
                            __ZN19LowVoltageResidency6PolicyC1ILNS_8PolicyIdE2EEENSt3__117integral_constantIS2_XT_EEE,
                            __ZN19LowVoltageResidency6PolicyC2ILNS_8PolicyIdE0EEENSt3__117integral_constantIS2_XT_EEE,
                            __ZN19LowVoltageResidency6PolicyC2ILNS_8PolicyIdE1EEENSt3__117integral_constantIS2_XT_EEE,
                            __ZN19LowVoltageResidency6PolicyC2ILNS_8PolicyIdE2EEENSt3__117integral_constantIS2_XT_EEE,
                            __ZNSt3__119piecewise_constructE ]
...
