--- !tapi-tbd-v3
archs:                 [ armv7, armv7s, arm64, arm64e ]
platform:              ios
flags:                 [ flat_namespace ]
install-name:          /System/Library/PrivateFrameworks/CoreAudioOrchestration.framework/CoreAudioOrchestration
current-version:       1
compatibility-version: 1
objc-constraint:       retain_release
exports:
  - archs:                [ armv7, armv7s, arm64, arm64e ]
    symbols:              [ _CoreAudioOrchestrationVersionNumber,
                            _CoreAudioOrchestrationVersionString,
                            _EDTReadingErrorDomain, _GetCAOrchestrator,
                            _GetCoreAudioOrchestrator,
                            _InstallCallbackForOrchestratorIsolatedAudio,
                            _InstallCallbackForOrchestratorLapseHandling,
                            _ProcessIsolatedDSP, _RecruitForIsolatedDSP,
                            _StartIsolatedDSP, _StartOrchestratorIsolatedAudio,
                            _StartOrchestratorIsolatedAudioAtTime,
                            _StopIsolatedDSP, _StopOrchestratorIsolatedAudio,
                            _UninstallCallbackForOrchestratorIsolatedAudio,
                            __Z10StopIOProcjPFijPK14AudioTimeStampPK15AudioBufferListS1_PS2_S1_PvE,
                            __Z11LapseEventsv,
                            __Z11StartIOProcjPFijPK14AudioTimeStampPK15AudioBufferListS1_PS2_S1_PvE,
                            __Z12ADMContextIDv,
                            __Z12CreateIOProcjPPFijPK14AudioTimeStampPK15AudioBufferListS1_PS2_S1_PvEP14IOProcCallable,
                            __Z13DestroyIOProcjPFijPK14AudioTimeStampPK15AudioBufferListS1_PS2_S1_PvE,
                            __Z15GetEntryForPathPKcPU15__autoreleasingP7NSError,
                            __Z17StartIOProcAtTimejPFijPK14AudioTimeStampPK15AudioBufferListS1_PS2_S1_PvEy,
                            __Z25ExADKeyNameForDestination23ExclaveAudioDestination,
                            __Z25ExADUseCaseFormatsFromEDTPU38objcproto27EmbeddedDeviceTreeAudioInfo11objc_object23ExclaveAudioDestinationPU15__autoreleasingP7NSError,
                            __Z33CreateLapseHandlingEventListenersjP20LapseHandlerCallable,
                            __Z34DestroyLapseHandlingEventListenersj,
                            __Z34ExADUseCaseFormatForUseCaseFromEDTPU38objcproto27EmbeddedDeviceTreeAudioInfo11objc_objectj23ExclaveAudioDestinationPU15__autoreleasingP7NSError,
                            __ZN11IOProcBrain10doClientIOE15IOProcArguments,
                            __ZN11IOProcBrain10doDSPInputE15IOProcArguments,
                            __ZN11IOProcBrain14configureADMIOERK18ADMIOConfiguration,
                            __ZN11IOProcBrain19installClientIOProcEPFiyyPvES0_,
                            __ZN11IOProcBrain21uninstallClientIOProcEv,
                            __ZN11IOProcBrain4doIOE15IOProcArguments,
                            __ZN11IOProcBrainC1Ev, __ZN11IOProcBrainC2Ev,
                            __ZN11IOProcBrainD1Ev, __ZN11IOProcBrainD2Ev,
                            __ZN14IOLapseHandler15setIOHasStartedEb,
                            __ZN14IOLapseHandlerC1EPFviPvES0_,
                            __ZN14IOLapseHandlerC2EPFviPvES0_,
                            __ZN14IOLapseHandlerD1Ev, __ZN14IOLapseHandlerD2Ev,
                            __ZN17MicActivityClient21setReferenceDeviceUIDEP8NSString,
                            __ZN17MicActivityClient25voiceActivityStateChangedEb,
                            __ZN17MicActivityClientC1EP21NSXPCListenerEndpoint,
                            __ZN17MicActivityClientC2EP21NSXPCListenerEndpoint,
                            __ZN17MicActivityClientD1Ev,
                            __ZN17MicActivityClientD2Ev,
                            __ZN18MicActivityContext19addClientConnectionEiP21NSXPCListenerEndpoint,
                            __ZN18MicActivityContext19processPropertyDataERK26AudioObjectPropertyAddressP6NSData,
                            __ZN18MicActivityContext22removeClientConnectionEi,
                            __ZN18MicActivityContext23getQualifierForPropertyERK26AudioObjectPropertyAddress,
                            __ZN18MicActivityContext24submitReferenceDeviceUIDEiP8NSString,
                            __ZN18MicActivityContextC1Ev,
                            __ZN18MicActivityContextC2Ev,
                            __ZN18MicActivityContextD1Ev,
                            __ZN18MicActivityContextD2Ev,
                            __ZN20SelfConfigureGateway23setSelfConfigureHandlerEU13block_pointerFiP28SelfConfigurationDescriptionE,
                            __ZN20SelfConfigureGatewayC1Ev,
                            __ZN20SelfConfigureGatewayC2Ev,
                            __ZN20SelfConfigureGatewayD1Ev,
                            __ZN20SelfConfigureGatewayD2Ev,
                            __ZN27DSPProcessorPropertyHandler15propertyChangedERK26AudioObjectPropertyAddress,
                            __ZN27DSPProcessorPropertyHandler26setDSPProcessorPropertySetEPU34objcproto23DSPProcessorPropertySet11objc_object,
                            __ZN27DSPProcessorPropertyHandlerC2Ev,
                            __ZN27DSPProcessorPropertyHandlerD1Ev,
                            __ZN27DSPProcessorPropertyHandlerD2Ev,
                            __ZN27MicActivityClientConnectionC1EP21NSXPCListenerEndpoint,
                            __ZN27MicActivityClientConnectionC2EP21NSXPCListenerEndpoint,
                            __ZN27MicActivityClientConnectionD1Ev,
                            __ZN27MicActivityClientConnectionD2Ev,
                            __ZN28MicActivityClientConnections19addClientConnectionEiP21NSXPCListenerEndpoint,
                            __ZN28MicActivityClientConnections22determinePrimaryClientEv,
                            __ZN28MicActivityClientConnections22removeClientConnectionEi,
                            __ZN28MicActivityClientConnections24submitReferenceDeviceUIDEiP8NSString,
                            __ZN28MicActivityClientConnections25voiceActivityStateChangedEb,
                            __ZN28MicActivityClientConnectionsC1Ev,
                            __ZN28MicActivityClientConnectionsC2Ev,
                            __ZN28MicActivityClientConnectionsD1Ev,
                            __ZN28MicActivityClientConnectionsD2Ev,
                            __ZN5ADMIO14configureADMIOERK18ADMIOConfiguration,
                            __ZN5ADMIO17ADMStreamsAndABLsC1Emm,
                            __ZN5ADMIO17ADMStreamsAndABLsC2Emm,
                            __ZN5ADMIO26translateABLsToProc_StreamEPK15AudioBufferListN2CA9TimeStampERKNSt3__16vectorImNS5_9allocatorImEEEERNS6_IN4AMCP11Proc_StreamENS7_ISD_EEEE,
                            __ZN5ADMIO26translateABLsToProc_StreamERK15IOProcArguments,
                            __ZN5ADMIO4doIOE15IOProcArguments,
                            __ZN5ADMIO9timeStampEPK14AudioTimeStamp,
                            __ZNK14IOLapseHandler11handleLapseEi,
                            __ZNK17MicActivityClient21getReferenceDeviceUIDEv,
                            __ZNK18MicActivityContext15isPrimaryClientEi,
                            __ZNK18MicActivityContext34getPrimaryClientReferenceDeviceUIDEv,
                            __ZNK20SelfConfigureGateway20executeSelfConfigureEP28SelfConfigurationDescription,
                            __ZNK27MicActivityClientConnection25voiceActivityStateChangedEb,
                            __ZNK28MicActivityClientConnections15isPrimaryClientEi,
                            __ZNK28MicActivityClientConnections34getPrimaryClientReferenceDeviceUIDEv,
                            __ZTI11IOProcBrain, __ZTI14IOLapseHandler,
                            __ZTI18MicActivityContext, __ZTI5ADMIO,
                            __ZTS11IOProcBrain, __ZTS14IOLapseHandler,
                            __ZTS18MicActivityContext, __ZTS5ADMIO,
                            __ZTV11IOProcBrain, __ZTV14IOLapseHandler,
                            __ZTV18MicActivityContext, __ZTV5ADMIO,
                            __ZThn8_N11IOProcBrain14configureADMIOERK18ADMIOConfiguration,
                            __ZThn8_N5ADMIO14configureADMIOERK18ADMIOConfiguration ]
    objc-classes:         [ ADMDSPHostCallbacks, ADMDSPProcessorPropertySet,
                            ADMIOConfigurator, CoreAudioOrchestration_ADM_Loader,
                            DSPController, ExclaveAudioFormatBase,
                            IORegistryEmbeddedDeviceTreeAudioInfo,
                            MicActivityServiceDelegate,
                            NonARCCoreAudioOrchestrationDelegate,
                            OrchestratorClientIOLapseHandler,
                            OrchestratorClientIOProc,
                            SelfConfigurationDescription,
                            StaticUseCaseADMConfiguration,
                            _TtC22CoreAudioOrchestration10Stravinsky,
                            _TtC22CoreAudioOrchestration12NSXPCService,
                            _TtC22CoreAudioOrchestration18ExclaveAudioFormat,
                            _TtC22CoreAudioOrchestration29ClientSharedAudioNSXPCService,
                            _TtC22CoreAudioOrchestration29IsolatedCoreAudioClientServer,
                            _TtC22CoreAudioOrchestration30CoreAudioOrchestrationDelegate ]
    objc-ivars:           [ ADMDSPHostCallbacks.hostCallbacks,
                            ADMDSPProcessorPropertySet.dspPropertySet,
                            ADMIOConfigurator.mADMIO,
                            CoreAudioOrchestration_ADM_Loader._admLibrary,
                            CoreAudioOrchestration_ADM_Loader.logger,
                            DSPController.admCallbacks,
                            DSPController.admConfigurator,
                            DSPController.admFactory,
                            DSPController.admHostCallbacks,
                            DSPController.admLoader,
                            DSPController.admPropertySet,
                            DSPController.dspIOProcessor,
                            ExclaveAudioFormatBase._channels,
                            ExclaveAudioFormatBase._framesPerIO,
                            ExclaveAudioFormatBase._sampleRate,
                            MicActivityServiceDelegate.mMicActivityContext,
                            MicActivityServiceDelegate.mSelfConfigureGateway,
                            OrchestratorClientIOLapseHandler.mDeviceID,
                            OrchestratorClientIOLapseHandler.mLapseHandler,
                            OrchestratorClientIOProc.mDeviceID,
                            OrchestratorClientIOProc.mIOBrain,
                            OrchestratorClientIOProc.mIOProcID,
                            SelfConfigurationDescription._referenceDeviceUID ]
    weak-def-symbols:     [ __ZNSt3__119piecewise_constructE ]
...
