--- !tapi-tbd-v3
archs:                 [ armv7, armv7s, arm64, arm64e ]
platform:              ios
flags:                 [ flat_namespace ]
install-name:          /System/Library/PrivateFrameworks/CookingKit.framework/CookingKit
current-version:       1
compatibility-version: 1
objc-constraint:       retain_release
exports:
  - archs:                [ armv7, armv7s, arm64, arm64e ]
    symbols:              [ _CookingKitVersionNumber, _CookingKitVersionString,
                            _TSDBitmapContextCreate,
                            _TSUBitmapGetAlignedBytesPerRow,
                            __Z12IsLightColorR7ITColor,
                            __Z14isCloseToColor8HSVColorS_ddb,
                            __Z16CompareSortColor14sortColorEntryS_,
                            __Z16IsLightLuminanced,
                            __Z18AnalyzeImagePleaseP9CGContextR19AnalyzedImageColors,
                            __Z18contrastsWithColor7ITColorS_,
                            __Z19CGColorSpaceGetSRGBv,
                            __Z20isCloseEnoughToColor8HSVColorS_,
                            __Z21colorIsCloseToMidtone7ITColor,
                            __Z24CompareQuantizeSortcolor22sortQuantizeColorEntryS_,
                            __Z24contrastsEnoughWithColor7ITColorS_,
                            __Z40ToggleImageColorUtilitiesTempFileCommandv,
                            __Z41GetToggleImageColorUtilitiesTempFileStatev,
                            __ZN13ImageAnalyzer12AnalyzeImageEP9CGContext,
                            __ZN13ImageAnalyzer14DominantColorsEv,
                            __ZN13ImageAnalyzer14PickTextColorsEv,
                            __ZN13ImageAnalyzer17GenerateColorMapsEP9CGContext,
                            __ZN13ImageAnalyzer17QuantizeColorMapsEv,
                            __ZN13ImageAnalyzer19DoPostImageAnalysisEv,
                            __ZN13ImageAnalyzer19PickBackgroundColorEv,
                            __ZN13ImageAnalyzer20WeightForPointOnEdgeEjj,
                            __ZN13ImageAnalyzer23CalculateOneShadowColorER7ITColorS1_,
                            __ZN13ImageAnalyzer23GetBorderMarginInPixelsEv,
                            __ZN13ImageAnalyzer24EnhanceContrastWithColorE7ITColorS0_d,
                            __ZN13ImageAnalyzer26AddDominantColorEntryToSetER14sortColorEntryRNSt3__16vectorIS0_NS2_9allocatorIS0_EEEE,
                            __ZN13ImageAnalyzer26AddQuantizeColorEntryToSetER22sortQuantizeColorEntryRNSt3__16vectorIS0_NS2_9allocatorIS0_EEEE,
                            __ZN13ImageAnalyzer27GetBorderMarginInPercentageEv,
                            __ZN13ImageAnalyzer27MakeDesaturatedTextColorForE7ITColor,
                            __ZN13ImageAnalyzer28GetColorLuminanceTypeOfColorE7ITColor,
                            __ZN13ImageAnalyzer35CalculateAlternateTextColorForColorER7ITColor,
                            __ZN13ImageAnalyzerC1Ev, __ZN13ImageAnalyzerC2Ev,
                            __ZN13ImageAnalyzerD1Ev, __ZN13ImageAnalyzerD2Ev,
                            __ZN19AnalyzedImageColors26GetDimmedTextColorForColorE7ITColor,
                            __ZN7ITColor10kLightGrayE,
                            __ZN7ITColor11kBorderGrayE,
                            __ZN7ITColor12kNearlyWhiteE,
                            __ZN7ITColor13kVeryDarkGrayE,
                            __ZN7ITColor14kVeryLightGrayE,
                            __ZN7ITColor17ConvertColorSpaceEP12CGColorSpaceS1_,
                            __ZN7ITColor17CreateFromDoublesEddd,
                            __ZN7ITColor18CreateFromHSVColorERK10ITHSVColor,
                            __ZN7ITColor20CreateFromHSVDoublesEddd,
                            __ZN7ITColor23GetHSVColorForRGBValuesEddd,
                            __ZN7ITColor23GetHSVColorForRGBValuesEhhh,
                            __ZN7ITColor23GetHueDistanceFromColorERK10ITHSVColorS2_,
                            __ZN7ITColor4kRedE, __ZN7ITColor5kBlueE,
                            __ZN7ITColor5kCyanE, __ZN7ITColor5kGrayE,
                            __ZN7ITColor6kBlackE, __ZN7ITColor6kBrownE,
                            __ZN7ITColor6kClearE, __ZN7ITColor6kGreenE,
                            __ZN7ITColor6kWhiteE, __ZN7ITColor7kOrangeE,
                            __ZN7ITColor7kPurpleE, __ZN7ITColor7kYellowE,
                            __ZN7ITColor8kMagentaE, __ZN7ITColor9kDarkGrayE,
                            __ZN7ITColorC1EP7CGColor, __ZN7ITColorC1ERK8RGBColor,
                            __ZN7ITColorC1Edd, __ZN7ITColorC1Eddd,
                            __ZN7ITColorC1Edddd, __ZN7ITColorC1Ev,
                            __ZN7ITColorC2EP7CGColor, __ZN7ITColorC2ERK8RGBColor,
                            __ZN7ITColorC2Edd, __ZN7ITColorC2Eddd,
                            __ZN7ITColorC2Edddd, __ZN7ITColorC2Ev,
                            __ZNK19AnalyzedImageColors25GetSelectionColorForStateEbb,
                            __ZNK19AnalyzedImageColors31GetSelectedRowTextColorForStateEbb,
                            __ZNK7ITColor11GetARGBBitsEv,
                            __ZNK7ITColor11GetHSVColorEv,
                            __ZNK7ITColor12GetLuminanceEv,
                            __ZNK7ITColor13CreateCGColorEv,
                            __ZNK7ITColor14IsCloseToColorERKS_d,
                            __ZNK7ITColor20GetContrastWithColorERKS_,
                            __ZNK7ITColor24GetContrastWithLuminanceEd,
                            __ZNK7ITColor30CreateBlendedColorWithFractionEdS_,
                            __ZNK7ITColorcv8RGBColorEv, __ZNK7ITColoreqERKS_,
                            __ZNK7ITColorneERKS_ ]
    objc-classes:         [ CRTextStorageBase, ImageColorAnalyzer ]
...
