--- !tapi-tbd-v3
archs:                 [ armv7, armv7s, arm64, arm64e ]
platform:              ios
flags:                 [ flat_namespace ]
install-name:          /System/Library/PrivateFrameworks/AppleMipcRouter.framework/AppleMipcRouter
current-version:       0
compatibility-version: 1
exports:
  - archs:                [ armv7, armv7s, arm64, arm64e ]
    symbols:              [ __ZN3abb6router10MipcServer6createENS0_12local_only_tENS0_6ConfigE,
                            __ZN3abb6router10MipcServer6createENS0_6ConfigE,
                            __ZN3abb6router10MipcServer6createEv,
                            __ZN3abb6router10MipcServerC1ENS0_6ConfigE,
                            __ZN3abb6router10MipcServerC2ENS0_6ConfigE,
                            __ZN3abb6router10SyncClientC1EPKcNSt3__110shared_ptrINS_4link10ClientLinkEEE,
                            __ZN3abb6router10SyncClientC2EPKcNSt3__110shared_ptrINS_4link10ClientLinkEEE,
                            __ZN3abb6router11ClientProxy13sendDown_syncEv,
                            __ZN3abb6router11ClientProxy13sendStop_syncEv,
                            __ZN3abb6router11ClientProxy14getStatus_syncEv,
                            __ZN3abb6router11ClientProxy14sendSleep_syncEN8dispatch13group_sessionE,
                            __ZN3abb6router11ClientProxy14setStatus_syncENS0_12ClientStatusE,
                            __ZN3abb6router11ClientProxy15sendActive_syncEv,
                            __ZN3abb6router11ClientProxy15sendStatus_syncENS0_12ClientStatusE,
                            __ZN3abb6router11ClientProxy15sendWakeup_syncEv,
                            __ZN3abb6router11ClientProxy16handleIndicationENS0_7MessageE,
                            __ZN3abb6router11ClientProxy17handleAction_syncENS0_12ClientActionE,
                            __ZN3abb6router11ClientProxy17handleGatewayDownEN8dispatch13group_sessionE,
                            __ZN3abb6router11ClientProxy17handleGatewayStopEN8dispatch13group_sessionE,
                            __ZN3abb6router11ClientProxy17handleLinkMessageEN3xpc4dictE,
                            __ZN3abb6router11ClientProxy17handleLinkMessageEN3xpc4dictENSt3__18functionIFvNS2_6objectEEEE,
                            __ZN3abb6router11ClientProxy17handleSentMessageENS0_7MessageEb,
                            __ZN3abb6router11ClientProxy17handleStatus_syncENS0_12ClientStatusE,
                            __ZN3abb6router11ClientProxy17updateEvents_syncEN3xpc5arrayE,
                            __ZN3abb6router11ClientProxy18handleConfirmationENS0_7MessageE,
                            __ZN3abb6router11ClientProxy18handleGatewaySleepEN8dispatch13group_sessionE,
                            __ZN3abb6router11ClientProxy18handleGatewayStartEN8dispatch13group_sessionE,
                            __ZN3abb6router11ClientProxy18handleRequest_syncENS0_7MessageE,
                            __ZN3abb6router11ClientProxy18handleStopped_syncEv,
                            __ZN3abb6router11ClientProxy18sendConnected_syncEv,
                            __ZN3abb6router11ClientProxy19handleGatewayWakeupEN8dispatch13group_sessionE,
                            __ZN3abb6router11ClientProxy19handleShutdown_syncEv,
                            __ZN3abb6router11ClientProxy19handleSleeping_syncEv,
                            __ZN3abb6router11ClientProxy19sendRegistered_syncEv,
                            __ZN3abb6router11ClientProxy20handleLinkDisconnectEv,
                            __ZN3abb6router11ClientProxy20updateWakeables_syncEN3xpc5arrayE,
                            __ZN3abb6router11ClientProxy21handleActionStop_syncEv,
                            __ZN3abb6router11ClientProxy21handleIndication_syncENS0_7MessageE,
                            __ZN3abb6router11ClientProxy22handleActionStart_syncEv,
                            __ZN3abb6router11ClientProxy22handleGatewayDown_syncEN8dispatch13group_sessionE,
                            __ZN3abb6router11ClientProxy22handleGatewayStop_syncEN8dispatch13group_sessionE,
                            __ZN3abb6router11ClientProxy22handleSentMessage_syncENS0_7MessageEb,
                            __ZN3abb6router11ClientProxy22updateIndications_syncEN8dispatch13group_sessionEN3xpc5arrayE,
                            __ZN3abb6router11ClientProxy23handleConfirmation_syncENS0_7MessageE,
                            __ZN3abb6router11ClientProxy23handleGatewaySleep_syncEN8dispatch13group_sessionE,
                            __ZN3abb6router11ClientProxy23handleGatewayStart_syncEN8dispatch13group_sessionE,
                            __ZN3abb6router11ClientProxy23handleRegistration_syncEN3xpc4dictE,
                            __ZN3abb6router11ClientProxy23trySendingRequests_syncEv,
                            __ZN3abb6router11ClientProxy24handleGatewayWakeup_syncEN8dispatch13group_sessionE,
                            __ZN3abb6router11ClientProxy25checkSleepCompletion_syncEv,
                            __ZN3abb6router11ClientProxy6createENS0_6ConfigENSt3__110shared_ptrINS0_7GatewayEEENS4_INS_4link10ServerLinkEEEj,
                            __ZN3abb6router11ClientProxy7connectEv,
                            __ZN3abb6router11ClientProxy9getStatusEv,
                            __ZN3abb6router11ClientProxyC1ENS0_6ConfigENSt3__110shared_ptrINS0_7GatewayEEENS4_INS_4link10ServerLinkEEEj,
                            __ZN3abb6router11ClientProxyC2ENS0_6ConfigENSt3__110shared_ptrINS0_7GatewayEEENS4_INS_4link10ServerLinkEEEj,
                            __ZN3abb6router11ClientProxyD0Ev,
                            __ZN3abb6router11ClientProxyD1Ev,
                            __ZN3abb6router11ClientProxyD2Ev,
                            __ZN3abb6router12TimerService6createEv,
                            __ZN3abb6router12TimerServiceC1Ev,
                            __ZN3abb6router12TimerServiceC2Ev,
                            __ZN3abb6router12TimerServiceD0Ev,
                            __ZN3abb6router12TimerServiceD1Ev,
                            __ZN3abb6router12TimerServiceD2Ev,
                            __ZN3abb6router13SyncSendProxyC1EOS1_,
                            __ZN3abb6router13SyncSendProxyC1ERKNS0_10SyncClientERKNS0_7MessageE,
                            __ZN3abb6router13SyncSendProxyC1ERKNS0_10SyncClientERKNSt3__16vectorIhNS5_9allocatorIhEEEE,
                            __ZN3abb6router13SyncSendProxyC2EOS1_,
                            __ZN3abb6router13SyncSendProxyC2ERKNS0_10SyncClientERKNS0_7MessageE,
                            __ZN3abb6router13SyncSendProxyC2ERKNS0_10SyncClientERKNSt3__16vectorIhNS5_9allocatorIhEEEE,
                            __ZN3abb6router13SyncSendProxyD0Ev,
                            __ZN3abb6router13SyncSendProxyD1Ev,
                            __ZN3abb6router13SyncSendProxyD2Ev,
                            __ZN3abb6router13toMsgTypeEnumENSt3__112basic_stringIcNS1_11char_traitsIcEENS1_9allocatorIcEEEE,
                            __ZN3abb6router15MessageIterator4nextEv,
                            __ZN3abb6router15MessageIteratorC1EPKhm,
                            __ZN3abb6router15MessageIteratorC2EPKhm,
                            __ZN3abb6router15MessageIteratorD1Ev,
                            __ZN3abb6router15MessageIteratorD2Ev,
                            __ZN3abb6router24GatewayAgentDelegateBaseD0Ev,
                            __ZN3abb6router24GatewayAgentDelegateBaseD1Ev,
                            __ZN3abb6router24GatewayAgentDelegateBaseD2Ev,
                            __ZN3abb6router25GatewayClientDelegateBaseD0Ev,
                            __ZN3abb6router25GatewayClientDelegateBaseD1Ev,
                            __ZN3abb6router25GatewayClientDelegateBaseD2Ev,
                            __ZN3abb6router5Agent16handleIndicationENS0_7MessageE,
                            __ZN3abb6router5Agent17handleGatewayDownEN8dispatch13group_sessionE,
                            __ZN3abb6router5Agent17handleGatewayStopEN8dispatch13group_sessionE,
                            __ZN3abb6router5Agent17handleSentMessageENS0_7MessageEb,
                            __ZN3abb6router5Agent18handleConfirmationENS0_7MessageE,
                            __ZN3abb6router5Agent18handleGatewaySleepEN8dispatch13group_sessionE,
                            __ZN3abb6router5Agent18handleGatewayStartEN8dispatch13group_sessionE,
                            __ZN3abb6router5Agent19handleGatewayWakeupEN8dispatch13group_sessionE,
                            __ZN3abb6router5Agent21handleIndication_syncENS0_7MessageE,
                            __ZN3abb6router5Agent22handleGatewayDown_syncEN8dispatch13group_sessionE,
                            __ZN3abb6router5Agent22handleGatewayStop_syncEN8dispatch13group_sessionE,
                            __ZN3abb6router5Agent22handleSentMessage_syncENS0_7MessageEb,
                            __ZN3abb6router5Agent23handleConfirmation_syncENS0_7MessageE,
                            __ZN3abb6router5Agent23handleGatewaySleep_syncEN8dispatch13group_sessionE,
                            __ZN3abb6router5Agent23handleGatewayStart_syncEN8dispatch13group_sessionE,
                            __ZN3abb6router5Agent24handleGatewayWakeup_syncEN8dispatch13group_sessionE,
                            __ZN3abb6router5Agent26handleGatewayClientConnectEN8dispatch13group_sessionEjb,
                            __ZN3abb6router5Agent29handleGatewayClientDisconnectEjb,
                            __ZN3abb6router5Agent31cancelPendingConfirmations_syncEv,
                            __ZN3abb6router5Agent4initEv,
                            __ZN3abb6router5Agent6createENS0_6ConfigENSt3__110shared_ptrINS0_7GatewayEEE,
                            __ZN3abb6router5Agent9addClientENSt3__110shared_ptrINS0_11ClientProxyEEE,
                            __ZN3abb6router5AgentC1ENS0_6ConfigENSt3__110shared_ptrINS0_7GatewayEEE,
                            __ZN3abb6router5AgentC2ENS0_6ConfigENSt3__110shared_ptrINS0_7GatewayEEE,
                            __ZN3abb6router6Client15deregIndHandlerEj,
                            __ZN3abb6router6Client16setClientTrackerENSt3__18weak_ptrIvEE,
                            __ZN3abb6router6Client16setIndShouldWakeEjb,
                            __ZN3abb6router6Client21regIndHandlerInternalEjNSt3__18functionIFvRKNS0_7MessageEEEE,
                            __ZN3abb6router6Client4stopEv,
                            __ZN3abb6router6Client5State10start_syncEv,
                            __ZN3abb6router6Client5State12connect_syncEv,
                            __ZN3abb6router6Client5State13register_syncEv,
                            __ZN3abb6router6Client5State14reconnect_syncEv,
                            __ZN3abb6router6Client5State15deregIndHandlerEj,
                            __ZN3abb6router6Client5State15handleDown_syncEv,
                            __ZN3abb6router6Client5State15regEventHandlerENS1_5EventEONSt3__18functionIFvN8dispatch5groupEEEE,
                            __ZN3abb6router6Client5State15sendAction_syncEv,
                            __ZN3abb6router6Client5State16handleError_syncEv,
                            __ZN3abb6router6Client5State16handleSleep_syncEv,
                            __ZN3abb6router6Client5State16setClientTrackerENSt3__18weak_ptrIvEE,
                            __ZN3abb6router6Client5State16setIndShouldWakeEjb,
                            __ZN3abb6router6Client5State17deregEventHandlerENS1_5EventE,
                            __ZN3abb6router6Client5State17handleActive_syncEv,
                            __ZN3abb6router6Client5State17handleLinkConnectEN3xpc6objectE,
                            __ZN3abb6router6Client5State17handleLinkMessageEN3xpc4dictE,
                            __ZN3abb6router6Client5State17handleLinkMessageEN3xpc4dictEN8dispatch5queueENSt3__18functionIFvNS3_6objectEEEE,
                            __ZN3abb6router6Client5State17handleServerErrorEN3xpc6objectE,
                            __ZN3abb6router6Client5State17handleStatus_syncENS0_12ClientStatusE,
                            __ZN3abb6router6Client5State17handleWakeup_syncEv,
                            __ZN3abb6router6Client5State18handleStopped_syncEv,
                            __ZN3abb6router6Client5State20handleConnected_syncEv,
                            __ZN3abb6router6Client5State21handleIndication_syncEN3xpc4dictE,
                            __ZN3abb6router6Client5State21handleRegistered_syncEv,
                            __ZN3abb6router6Client5State21notifyErrorEvent_syncEv,
                            __ZN3abb6router6Client5State21regIndHandlerInternalEjNSt3__18functionIFvRKNS0_7MessageEEEE,
                            __ZN3abb6router6Client5State22sendClientMessage_syncENS0_7MessageENSt3__18functionIFvRKS3_EEE,
                            __ZN3abb6router6Client5State22trackConfirmation_syncERKN3xpc4dictENSt3__18functionIFvRKNS0_7MessageEEEE,
                            __ZN3abb6router6Client5State23handleConfirmation_syncEN3xpc4dictE,
                            __ZN3abb6router6Client5State23notifyIsAwakeEvent_syncEv,
                            __ZN3abb6router6Client5State23notifyStartedEvent_syncEv,
                            __ZN3abb6router6Client5State23notifyStoppedEvent_syncEv,
                            __ZN3abb6router6Client5State24getRegisteredEvents_syncEv,
                            __ZN3abb6router6Client5State24sServerReadyNotificationEP22__CFNotificationCenterPvPK10__CFStringPKvPK14__CFDictionary,
                            __ZN3abb6router6Client5State25cancelQueuedRequests_syncEv,
                            __ZN3abb6router6Client5State25notifyWillSleepEvent_syncEv,
                            __ZN3abb6router6Client5State25prepareClientTracker_syncENSt3__18weak_ptrIvEE,
                            __ZN3abb6router6Client5State27getWakeableIndications_syncEv,
                            __ZN3abb6router6Client5State28trySendingClientMessage_syncEv,
                            __ZN3abb6router6Client5State29getRegisteredIndications_syncEv,
                            __ZN3abb6router6Client5State31cancelPendingConfirmations_syncEv,
                            __ZN3abb6router6Client5State4sendENS0_7MessageENSt3__18functionIFvRKS3_EEE,
                            __ZN3abb6router6Client5State4stopEv,
                            __ZN3abb6router6Client5State5startEv,
                            __ZN3abb6router6Client5State6createEPKcN8dispatch5queueENSt3__110shared_ptrINS_4link10ClientLinkEEE,
                            __ZN3abb6router6Client5State9stop_syncEv,
                            __ZN3abb6router6Client5StateC1EPKcN8dispatch5queueENSt3__110shared_ptrINS_4link10ClientLinkEEE,
                            __ZN3abb6router6Client5StateC2EPKcN8dispatch5queueENSt3__110shared_ptrINS_4link10ClientLinkEEE,
                            __ZN3abb6router6Client5StateD0Ev,
                            __ZN3abb6router6Client5StateD1Ev,
                            __ZN3abb6router6Client5StateD2Ev,
                            __ZN3abb6router6Client5startEv,
                            __ZN3abb6router6Client6createEPKcN8dispatch5queueENSt3__110shared_ptrINS_4link10ClientLinkEEE,
                            __ZN3abb6router6ClientC1EPKcN8dispatch5queueENSt3__110shared_ptrINS_4link10ClientLinkEEE,
                            __ZN3abb6router6ClientC2EPKcN8dispatch5queueENSt3__110shared_ptrINS_4link10ClientLinkEEE,
                            __ZN3abb6router6Server12addTransportENSt3__110shared_ptrINS0_9TransportEEE,
                            __ZN3abb6router6Server18addXpcLinkAccepterENSt3__110shared_ptrINS_4link15XpcLinkAccepterEEE,
                            __ZN3abb6router6Server19handleClientConnectENSt3__110shared_ptrINS_4link10ServerLinkEEE,
                            __ZN3abb6router6Server20addLocalLinkAccepterENSt3__110shared_ptrINS_4link17LocalLinkAccepterEEE,
                            __ZN3abb6router6Server20registerErrorHandlerENSt3__18functionIFvNS0_5ErrorERKNS2_12basic_stringIcNS2_11char_traitsIcEENS2_9allocatorIcEEEEEEE,
                            __ZN3abb6router6Server27registerMetricStreamHandlerENSt3__18functionIFvN3xpc4dictEEEE,
                            __ZN3abb6router6Server28registerMetricSummaryHandlerENSt3__18functionIFvN3xpc4dictEEEE,
                            __ZN3abb6router6Server4initEN8dispatch13group_sessionE,
                            __ZN3abb6router6Server4stopEN8dispatch13group_sessionE,
                            __ZN3abb6router6Server5abortEN8dispatch13group_sessionE,
                            __ZN3abb6router6Server5sleepEN8dispatch13group_sessionE,
                            __ZN3abb6router6Server5startEN8dispatch13group_sessionE,
                            __ZN3abb6router6Server6createERKNSt3__112basic_stringIcNS2_11char_traitsIcEENS2_9allocatorIcEEEENS0_6ConfigE,
                            __ZN3abb6router6Server6wakeupEN8dispatch13group_sessionE,
                            __ZN3abb6router6Server8shutdownEN8dispatch13group_sessionE,
                            __ZN3abb6router6Server9statedumpEN8dispatch13group_sessionE,
                            __ZN3abb6router6ServerC1ENS0_6ConfigE,
                            __ZN3abb6router6ServerC2ENS0_6ConfigE,
                            __ZN3abb6router7Gateway10abort_syncEN8dispatch13group_sessionE,
                            __ZN3abb6router7Gateway10sleep_syncEN8dispatch13group_sessionE,
                            __ZN3abb6router7Gateway10start_syncEN8dispatch13group_sessionE,
                            __ZN3abb6router7Gateway11sendMessageENS0_7MessageE,
                            __ZN3abb6router7Gateway11wakeup_syncEN8dispatch13group_sessionE,
                            __ZN3abb6router7Gateway13addUserClientEjNSt3__110shared_ptrINS0_25GatewayClientDelegateBaseEEE,
                            __ZN3abb6router7Gateway13shutdown_syncEN8dispatch13group_sessionE,
                            __ZN3abb6router7Gateway14messageTimeoutENS0_7MessageE,
                            __ZN3abb6router7Gateway14setStatus_syncENS1_6StatusE,
                            __ZN3abb6router7Gateway14statedump_syncEN8dispatch13group_sessionE,
                            __ZN3abb6router7Gateway16notifyReady_syncEv,
                            __ZN3abb6router7Gateway16removeUserClientEjb,
                            __ZN3abb6router7Gateway16reportError_syncENS0_5ErrorENSt3__112basic_stringIcNS3_11char_traitsIcEENS3_9allocatorIcEEEE,
                            __ZN3abb6router7Gateway16resetMetric_syncEv,
                            __ZN3abb6router7Gateway16sendMessage_syncENS0_7MessageE,
                            __ZN3abb6router7Gateway17registerTransportENSt3__110shared_ptrINS0_9TransportEEE,
                            __ZN3abb6router7Gateway17updateFlowControlEmNSt3__18optionalIKNS0_7MessageEEE,
                            __ZN3abb6router7Gateway18handleMessage_syncENS0_7MessageE,
                            __ZN3abb6router7Gateway18openTransport_syncEv,
                            __ZN3abb6router7Gateway19closeTransport_syncEv,
                            __ZN3abb6router7Gateway20regClientIndicationsEN8dispatch13group_sessionEjNSt3__13setIjNS4_4lessIjEENS4_9allocatorIjEEEESA_,
                            __ZN3abb6router7Gateway20registerErrorHandlerENSt3__18functionIFvNS0_5ErrorERKNS2_12basic_stringIcNS2_11char_traitsIcEENS2_9allocatorIcEEEEEEE,
                            __ZN3abb6router7Gateway21handleIndication_syncENS0_7MessageE,
                            __ZN3abb6router7Gateway22registerTransport_syncENSt3__110shared_ptrINS0_9TransportEEE,
                            __ZN3abb6router7Gateway22trySendingMessage_syncEv,
                            __ZN3abb6router7Gateway22updateFlowControl_syncEmNSt3__18optionalIKNS0_7MessageEEE,
                            __ZN3abb6router7Gateway23reportMetricStream_syncEN8dispatch13group_sessionEN3xpc4dictE,
                            __ZN3abb6router7Gateway24reportMetricSummary_syncEN8dispatch13group_sessionEN3xpc4dictE,
                            __ZN3abb6router7Gateway24trackPendingActions_syncENS1_6StatusEN8dispatch13group_sessionE,
                            __ZN3abb6router7Gateway25handlePendingActions_syncEv,
                            __ZN3abb6router7Gateway27registerMetricStreamHandlerENSt3__18functionIFvN3xpc4dictEEEE,
                            __ZN3abb6router7Gateway28registerMetricSummaryHandlerENSt3__18functionIFvN3xpc4dictEEEE,
                            __ZN3abb6router7Gateway4initEN8dispatch13group_sessionE,
                            __ZN3abb6router7Gateway4stopEN8dispatch13group_sessionE,
                            __ZN3abb6router7Gateway5abortEN8dispatch13group_sessionE,
                            __ZN3abb6router7Gateway5sleepEN8dispatch13group_sessionE,
                            __ZN3abb6router7Gateway5startEN8dispatch13group_sessionE,
                            __ZN3abb6router7Gateway6createENS0_6ConfigE,
                            __ZN3abb6router7Gateway6wakeupEN8dispatch13group_sessionE,
                            __ZN3abb6router7Gateway8shutdownEN8dispatch13group_sessionE,
                            __ZN3abb6router7Gateway9init_syncEN8dispatch13group_sessionE,
                            __ZN3abb6router7Gateway9statedumpEN8dispatch13group_sessionE,
                            __ZN3abb6router7Gateway9stop_syncEN8dispatch13group_sessionE,
                            __ZN3abb6router7GatewayC1ENS0_6ConfigE,
                            __ZN3abb6router7GatewayC2ENS0_6ConfigE,
                            __ZN3abb6router7GatewayD0Ev,
                            __ZN3abb6router7GatewayD1Ev,
                            __ZN3abb6router7GatewayD2Ev,
                            __ZN3abb6router7Message10setTimeoutENSt3__16chrono8durationIxNS2_5ratioILl1ELl1000EEEEE,
                            __ZN3abb6router7Message11setClientIdEj,
                            __ZN3abb6router7Message13setAllowSleepEb,
                            __ZN3abb6router7Message13setTrxCounterEj,
                            __ZN3abb6router7Message14setQueuePolicyENS0_11QueuePolicyE,
                            __ZN3abb6router7Message8setSimIdEj,
                            __ZN3abb6router7Message8setTrxIdEj,
                            __ZN3abb6router7MessageC1ENSt3__110error_codeE,
                            __ZN3abb6router7MessageC1EONSt3__16vectorIhNS2_9allocatorIhEEEE,
                            __ZN3abb6router7MessageC1EPKhm,
                            __ZN3abb6router7MessageC1ERKNSt3__16vectorIhNS2_9allocatorIhEEEE,
                            __ZN3abb6router7MessageC1EjRKNSt3__16vectorIhNS2_9allocatorIhEEEE,
                            __ZN3abb6router7MessageC2ENSt3__110error_codeE,
                            __ZN3abb6router7MessageC2EONSt3__16vectorIhNS2_9allocatorIhEEEE,
                            __ZN3abb6router7MessageC2EPKhm,
                            __ZN3abb6router7MessageC2ERKNSt3__16vectorIhNS2_9allocatorIhEEEE,
                            __ZN3abb6router7MessageC2EjRKNSt3__16vectorIhNS2_9allocatorIhEEEE,
                            __ZN3abb6router7MessageD0Ev,
                            __ZN3abb6router7MessageD1Ev,
                            __ZN3abb6router7MessageD2Ev,
                            __ZN3abb6router7Metrics12resetSummaryEv,
                            __ZN3abb6router7Metrics13recordMessageEjm,
                            __ZN3abb6router7Metrics19resetTimeSeriesDataEv,
                            __ZN3abb6router7Metrics21registerStreamHandlerENSt3__18functionIFvN3xpc4dictEEEE,
                            __ZN3abb6router7MetricsC1ENSt3__112basic_stringIcNS2_11char_traitsIcEENS2_9allocatorIcEEEENS0_12MetricConfigE,
                            __ZN3abb6router7MetricsC2ENSt3__112basic_stringIcNS2_11char_traitsIcEENS2_9allocatorIcEEEENS0_12MetricConfigE,
                            __ZN3abb6router7MetricsD1Ev,
                            __ZN3abb6router7MetricsD2Ev,
                            __ZN3abb6router8toStringENS0_7MsgTypeE,
                            __ZN3abb6router9SendProxyC1EOS1_,
                            __ZN3abb6router9SendProxyC1ERKNS0_6ClientERKNS0_7MessageE,
                            __ZN3abb6router9SendProxyC1ERKNS0_6ClientERKNSt3__16vectorIhNS5_9allocatorIhEEEE,
                            __ZN3abb6router9SendProxyC1ERKNS0_6ClientEjRKNSt3__16vectorIhNS5_9allocatorIhEEEE,
                            __ZN3abb6router9SendProxyC2EOS1_,
                            __ZN3abb6router9SendProxyC2ERKNS0_6ClientERKNS0_7MessageE,
                            __ZN3abb6router9SendProxyC2ERKNS0_6ClientERKNSt3__16vectorIhNS5_9allocatorIhEEEE,
                            __ZN3abb6router9SendProxyC2ERKNS0_6ClientEjRKNSt3__16vectorIhNS5_9allocatorIhEEEE,
                            __ZN3abb6router9SendProxyD0Ev,
                            __ZN3abb6router9SendProxyD1Ev,
                            __ZN3abb6router9SendProxyD2Ev,
                            __ZN4mipc6router10SyncClientC1EPKcNSt3__110shared_ptrIN3abb4link10ClientLinkEEE,
                            __ZN4mipc6router10SyncClientC2EPKcNSt3__110shared_ptrIN3abb4link10ClientLinkEEE,
                            __ZN4mipc6router6ClientC1EPKcN8dispatch5queueENSt3__110shared_ptrIN3abb4link10ClientLinkEEE,
                            __ZN4mipc6router6ClientC2EPKcN8dispatch5queueENSt3__110shared_ptrIN3abb4link10ClientLinkEEE,
                            __ZNK3abb6router10SyncClient12sendInternalERKNS0_13SyncSendProxyE,
                            __ZNK3abb6router11ClientProxy11getClientIdEv,
                            __ZNK3abb6router11ClientProxy12getWakeablesEv,
                            __ZNK3abb6router11ClientProxy14getIndicationsEv,
                            __ZNK3abb6router11ClientProxy16sendMessage_syncERKN3xpc4dictE,
                            __ZNK3abb6router11ClientProxy21sendErrorMessage_syncENS0_7MessageENSt3__14errcE,
                            __ZNK3abb6router11ClientProxy25waitForConfirmations_syncEv,
                            __ZNK3abb6router5Agent15getNextClientIdEv,
                            __ZNK3abb6router5Agent20getAllWakeables_syncEv,
                            __ZNK3abb6router5Agent20getNextClientId_syncEv,
                            __ZNK3abb6router5Agent21getAllIndication_syncEv,
                            __ZNK3abb6router5Agent22getNextTrxCounter_syncEv,
                            __ZNK3abb6router5Agent23prepareOpenMessage_syncEv,
                            __ZNK3abb6router5Agent24prepareCloseMessage_syncEv,
                            __ZNK3abb6router5Agent29prepareIndicationMessage_syncENSt3__13setIjNS2_4lessIjEENS2_9allocatorIjEEEE,
                            __ZNK3abb6router5Agent33prepareFlowControlAckMessage_syncEm,
                            __ZNK3abb6router6Client11getClientIdEv,
                            __ZNK3abb6router6Client12getNextTrxIdEv,
                            __ZNK3abb6router6Client12sendInternalERKNS0_9SendProxyE,
                            __ZNK3abb6router6Client15regEventHandlerENS1_5EventEONSt3__18functionIFvN8dispatch5groupEEEE,
                            __ZNK3abb6router6Client15regEventHandlerENS1_5EventEONSt3__18functionIFvvEEE,
                            __ZNK3abb6router6Client17deregEventHandlerENS1_5EventE,
                            __ZNK3abb6router6Client24getRegisteredIndicationsEv,
                            __ZNK3abb6router6Client5State11getClientIdEv,
                            __ZNK3abb6router6Client5State12getNextTrxIdEv,
                            __ZNK3abb6router6Client5State16sendMessage_syncERKN3xpc4dictE,
                            __ZNK3abb6router6Client5State17getNextTrxId_syncEv,
                            __ZNK3abb6router6Client5State22isClientConnected_syncEv,
                            __ZNK3abb6router6Client5State24getRegisteredIndicationsEv,
                            __ZNK3abb6router6Client5State7getNameEv,
                            __ZNK3abb6router6Client7getNameEv,
                            __ZNK3abb6router6Server13createXpcLinkEv,
                            __ZNK3abb6router6Server15createLocalLinkEv,
                            __ZNK3abb6router7Gateway14getStatus_syncEv,
                            __ZNK3abb6router7Message10getMsgNameEv,
                            __ZNK3abb6router7Message10getMsgTypeEv,
                            __ZNK3abb6router7Message10getTimeoutEv,
                            __ZNK3abb6router7Message10infoStringEv,
                            __ZNK3abb6router7Message10startTimerEN8dispatch5queueENS2_5blockIU13block_pointerFvvEEE,
                            __ZNK3abb6router7Message11cancelTimerEv,
                            __ZNK3abb6router7Message11getClientIdEv,
                            __ZNK3abb6router7Message11isSensitiveEv,
                            __ZNK3abb6router7Message13getAllowSleepEv,
                            __ZNK3abb6router7Message13getTrxCounterEv,
                            __ZNK3abb6router7Message13payloadStringEv,
                            __ZNK3abb6router7Message14getQueuePolicyEv,
                            __ZNK3abb6router7Message19generatePrintStringEv,
                            __ZNK3abb6router7Message7isErrorEv,
                            __ZNK3abb6router7Message8getErrorEv,
                            __ZNK3abb6router7Message8getMsgIdEv,
                            __ZNK3abb6router7Message8getSimIdEv,
                            __ZNK3abb6router7Message8getTrxIdEv,
                            __ZNK3abb6router7Message9getRawMsgEv,
                            __ZNK3abb6router7MessagecvbEv,
                            __ZNK3abb6router7Metrics13exportSummaryEv,
                            __ZNK3abb6router7Metrics20exportTimeSeriesDataEv,
                            __ZNK3abb6router7Metrics21getTopMessagesByBytesEm,
                            __ZNK3abb6router7Metrics21getTopMessagesByCountEm,
                            __ZNK3abb6router7Metrics28getTopMessagesByPeakByteRateEm,
                            __ZNK3abb6router7Metrics29getTopMessagesByPeakCountRateEm,
                            __ZNO3abb6router13SyncSendProxy10allowSleepEv,
                            __ZNO3abb6router13SyncSendProxy11queuePolicyENS0_11QueuePolicyE,
                            __ZNO3abb6router13SyncSendProxy7timeoutENSt3__16chrono8durationIxNS2_5ratioILl1ELl1000EEEEE,
                            __ZNO3abb6router13SyncSendProxy8getTrxIdERj,
                            __ZNO3abb6router9SendProxy10allowSleepEv,
                            __ZNO3abb6router9SendProxy11queuePolicyENS0_11QueuePolicyE,
                            __ZNO3abb6router9SendProxy7timeoutENSt3__16chrono8durationIxNS2_5ratioILl1ELl1000EEEEE,
                            __ZNO3abb6router9SendProxy8getTrxIdERj,
                            __ZTIN3abb6router11ClientProxyE,
                            __ZTIN3abb6router12TimerServiceE,
                            __ZTIN3abb6router13SyncSendProxyE,
                            __ZTIN3abb6router24GatewayAgentDelegateBaseE,
                            __ZTIN3abb6router25GatewayClientDelegateBaseE,
                            __ZTIN3abb6router6Client5StateE,
                            __ZTIN3abb6router7GatewayE,
                            __ZTIN3abb6router7MessageE,
                            __ZTIN3abb6router9SendProxyE,
                            __ZTSN3abb6router11ClientProxyE,
                            __ZTSN3abb6router12TimerServiceE,
                            __ZTSN3abb6router13SyncSendProxyE,
                            __ZTSN3abb6router24GatewayAgentDelegateBaseE,
                            __ZTSN3abb6router25GatewayClientDelegateBaseE,
                            __ZTSN3abb6router6Client5StateE,
                            __ZTSN3abb6router7GatewayE,
                            __ZTSN3abb6router7MessageE,
                            __ZTSN3abb6router9SendProxyE,
                            __ZTVN3abb6router11ClientProxyE,
                            __ZTVN3abb6router12TimerServiceE,
                            __ZTVN3abb6router13SyncSendProxyE,
                            __ZTVN3abb6router24GatewayAgentDelegateBaseE,
                            __ZTVN3abb6router25GatewayClientDelegateBaseE,
                            __ZTVN3abb6router6Client5StateE,
                            __ZTVN3abb6router7GatewayE,
                            __ZTVN3abb6router7MessageE,
                            __ZTVN3abb6router9SendProxyE ]
...
