--- !tapi-tbd-v3
archs:                 [ armv7, armv7s, arm64, arm64e ]
platform:              ios
flags:                 [ flat_namespace ]
install-name:          /System/Library/PrivateFrameworks/MSGExternalSync.framework/MSGExternalSync
current-version:       1
compatibility-version: 1
exports:
  - archs:                [ armv7, armv7s, arm64, arm64e ]
    symbols:              [ _MSGExternalSyncVersionNumber,
                            _MSGExternalSyncVersionString,
                            __Z12setNewStatus20external_sync_statusPNSt3__118counting_semaphoreILl3EEE,
                            __Z16getMCT_MAT_DeltaPy,
                            __Z17alignToPhaseRampsbbbN8AppleMSG13msg_sync_id_tEP13MSGControllerNSt3__112basic_stringIcNS3_11char_traitsIcEENS3_9allocatorIcEEEE,
                            __Z17getNextCellInLineRKNSt3__112basic_stringIcNS_11char_traitsIcEENS_9allocatorIcEEEERS5_mRm,
                            __Z17plotEventTriggersR13TimingPlottermPKN8AppleMSG24msg_event_trigger_timingE,
                            __Z17splitLineToNCellsRKNSt3__112basic_stringIcNS_11char_traitsIcEENS_9allocatorIcEEEEmRS5_S8_S8_S8_,
                            __Z18isErrorRecoverableiPih,
                            __Z18updateEventsStatusR20external_sync_statusPN8AppleMSG24msg_event_trigger_timingEml,
                            __Z19alignToExternalSyncP19external_sync_inputP20external_sync_output,
                            __Z19asyncThreadWorkloadv, __Z19load_current_statusv,
                            __Z20getOutputSyncsLayoutP19external_sync_input,
                            __Z20updateAlignmentStateR20external_sync_statusN8AppleMSG10gtb_time_tE,
                            __Z21loadSimulatedRampDataRKNSt3__112basic_stringIcNS_11char_traitsIcEENS_9allocatorIcEEEERNS_6vectorI11RampCSVDataNS3_IS9_EEEE,
                            __Z22getCurrentTimeAsStringv,
                            __Z22makeDirectoriesAndOpenRKNSt3__112basic_stringIcNS_11char_traitsIcEENS_9allocatorIcEEEERNS_14basic_ofstreamIcS2_EE,
                            __Z24loadSimulatedPenroseDataRKNSt3__112basic_stringIcNS_11char_traitsIcEENS_9allocatorIcEEEERNS_6vectorI11PenroseDataNS3_IS9_EEEE,
                            __Z27scheduleSyncPulseAdjustmentN8AppleMSG13msg_sync_id_tEP13MSGControllerS0_S2_PNS_20sync_master_config_tEPNS_10gtb_time_tEmRb21output_syncs_layout_t,
                            __Z29externalSyncShouldStopRunningv,
                            __Z31simulateTargetFrequencyAndPhaseNSt3__16vectorI19PenroseSimulateDataNS_9allocatorIS1_EEEER22MSGPenroseSyncTargeterRN8AppleMSG10gtb_time_tERNS7_15gtb_full_time_tERb,
                            __Z33externalSyncShouldTriggerDataDumpv,
                            __ZN11SyncAligner18getPhaseDifferenceEN8AppleMSG10gtb_time_tENS0_15gtb_full_time_tES1_,
                            __ZN11SyncAligner31getClampedScheduledTimeExplodedEnyy,
                            __ZN11SyncAligner31populateConfigForFinalAlignmentEPK20sync_alignment_inputhP21sync_alignment_output,
                            __ZN11SyncAligner32populateConfigForDriftCorrectionEPK20sync_alignment_inputPKN8AppleMSG15gtb_full_time_tEhP21sync_alignment_output,
                            __ZN11SyncAligner38populateScheduledTimesForStepAlignmentEPK20sync_alignment_inputhPKN8AppleMSG10gtb_time_tEmRKNS3_15gtb_full_time_tEnP21sync_alignment_output,
                            __ZN11SyncAligner40populateConfigForContinuousStepAlignmentEPK20sync_alignment_inputPK21sync_alignment_paramshP21sync_alignment_output,
                            __ZN11SyncAlignerC1Etm, __ZN11SyncAlignerC2Etm,
                            __ZN17DirectSyncAligner22getSyncAlignmentParamsEP20sync_alignment_inputP21sync_alignment_params,
                            __ZN17DirectSyncAligner23planSyncPulseAdjustmentEP20sync_alignment_inputP21sync_alignment_output,
                            __ZN17DirectSyncAligner34getSyncAlignmentParamsForDirectionERK35sync_alignment_with_direction_inputR36sync_alignment_with_direction_output,
                            __ZN17DirectSyncAlignerC1Etmyyy,
                            __ZN17DirectSyncAlignerC2Etmyyy,
                            __ZTI17DirectSyncAligner, __ZTS17DirectSyncAligner,
                            __ZTV17DirectSyncAligner ]
...
