--- !tapi-tbd-v3
archs:                 [ armv7, armv7s, arm64, arm64e ]
platform:              ios
flags:                 [ flat_namespace ]
install-name:          /System/Library/PrivateFrameworks/Vista.framework/Vista
current-version:       0
compatibility-version: 0
objc-constraint:       retain_release
exports:
  - archs:                [ armv7, armv7s, arm64, arm64e ]
    symbols:              [ _VSTForceMissingSymbolsToBeLinked,
                            _VistaVersionNumber, _VistaVersionString,
                            __Z26__VSTCoreLogSharedInstancev,
                            __Z28__VSTCoreLogVerboseSignpostsv,
                            __ZN3vst10controller10ServerImpl11_checkQueryERKNS0_5QueryE,
                            __ZN3vst10controller10ServerImpl12processQueryERKNS0_5QueryE,
                            __ZN3vst10controller10ServerImpl13_fetchUpdatesEP5NSSetIP8NSStringE,
                            __ZN3vst10controller10ServerImpl15_applyOverridesEP12NSDictionary,
                            __ZN3vst10controller10ServerImpl15connectToClientEv,
                            __ZN3vst10controller10ServerImpl19_updateClientStatusERKNS0_5QueryE,
                            __ZN3vst10controller10ServerImpl20disconnectFromClientEP8NSString,
                            __ZN3vst10controller10ServerImpl4initEv,
                            __ZN3vst10controller10ServerImpl9_pollLoopEv,
                            __ZN3vst10controller10ServerImplD1Ev,
                            __ZN3vst10controller10ServerImplD2Ev,
                            __ZN3vst10controller13CLIClientImpl11pollUpdatesEv,
                            __ZN3vst10controller13CLIClientImpl13onServerReplyERKNS0_5ReplyE,
                            __ZN3vst10controller13CLIClientImpl16_checkCreateInfoERKNS0_9CLIClient10CreateInfoE,
                            __ZN3vst10controller13CLIClientImpl20_pollIncomingQueriesEv,
                            __ZN3vst10controller13CLIClientImpl22_updateConnectionStateEP12NSDictionary,
                            __ZN3vst10controller13CLIClientImpl4initERKNS0_9CLIClient10CreateInfoE,
                            __ZN3vst10controller13LiteHUDClient13onServerReplyEP12NSDictionary,
                            __ZN3vst10controller13LiteHUDClient6createEv,
                            __ZN3vst10controller13LiteHUDClientC1Ev,
                            __ZN3vst10controller13LiteHUDClientC2Ev,
                            __ZN3vst10controller13LiteHUDClientD1Ev,
                            __ZN3vst10controller13LiteHUDClientD2Ev,
                            __ZN3vst10controller17LiteHUDClientImpl13onServerReplyEP12NSDictionary,
                            __ZN3vst10controller17LiteHUDClientImpl17_connectToLiteHUDEPNS0_6UnsafeE,
                            __ZN3vst10controller17LiteHUDClientImpl17_resumeConnectionEv,
                            __ZN3vst10controller17LiteHUDClientImpl18_suspendConnectionEv,
                            __ZN3vst10controller17LiteHUDClientImpl20_onUpdateClientStateEP7NSArray,
                            __ZN3vst10controller17LiteHUDClientImpl21_onClientDisconnectedEP8NSString,
                            __ZN3vst10controller17LiteHUDClientImpl21_onNewClientConnectedEP8NSString,
                            __ZN3vst10controller17LiteHUDClientImpl4initEv,
                            __ZN3vst10controller17LiteHUDClientImplD1Ev,
                            __ZN3vst10controller17LiteHUDClientImplD2Ev,
                            __ZN3vst10controller26ProxyRendererCreateOptionseqERKS1_,
                            __ZN3vst10controller28encodeUpdateDataToDictionaryERKNS0_23ProxyRendererUpdateDataE,
                            __ZN3vst10controller29makeDrawOptionsFromDictionaryEP12NSDictionary,
                            __ZN3vst10controller30decodeUpdateDataFromDictionaryEP12NSDictionary,
                            __ZN3vst10controller31makeCreateOptionsFromDictionaryEP12NSDictionary,
                            __ZN3vst10controller34makeRecordingOptionsFromDictionaryEP12NSDictionary,
                            __ZN3vst10controller6Server12processQueryERKNS0_5QueryE,
                            __ZN3vst10controller6Server15connectToClientEv,
                            __ZN3vst10controller6Server20disconnectFromClientEP8NSString,
                            __ZN3vst10controller6Server6createEv,
                            __ZN3vst10controller6ServerC1Ev,
                            __ZN3vst10controller6ServerC2Ev,
                            __ZN3vst10controller6ServerD1Ev,
                            __ZN3vst10controller6ServerD2Ev,
                            __ZN3vst10controller9CLIClient11pollUpdatesEv,
                            __ZN3vst10controller9CLIClient13onServerReplyERKNS0_5ReplyE,
                            __ZN3vst10controller9CLIClient6createERKNS1_10CreateInfoE,
                            __ZN3vst10controller9CLIClientC1Ev,
                            __ZN3vst10controller9CLIClientC2Ev,
                            __ZN3vst10controller9CLIClientD1Ev,
                            __ZN3vst10controller9CLIClientD2Ev,
                            __ZN3vst3api13makeLayerDataEP25VSTProxyRendererLayerData,
                            __ZN3vst3api17makeCreateInfoAPIERKNS_5splat13ProxyRenderer10CreateInfoEP8NSStringm,
                            __ZN3vst3api17makeTextureBoundsEP29VSTProxyRendererTextureBounds,
                            __ZN3vst3api17makeUpdateInfoAPIERKNS_5splat13ProxyRenderer10UpdateInfoEb,
                            __ZN3vst3api17makeVisibleSplatsEP29VSTProxyRendererVisibleSplats,
                            __ZN3vst3api18applyToDrawOptionsERKNS_10controller24ProxyRendererDrawOptionsERNS_5splat12BaseRenderer11DrawOptionsE,
                            __ZN3vst3api20applyToCreateOptionsERKNS_10controller26ProxyRendererCreateOptionsERNS_5splat13ProxyRenderer10CreateInfoE,
                            __ZN3vst3api21applyToCullingOptionsERKNS_10controller24ProxyRendererDrawOptionsERNS_5splat12BaseRenderer14CullingOptionsE,
                            __ZN3vst3api23applyToSplattingOptionsERKNS_10controller24ProxyRendererDrawOptionsERNS_5splat13ProxyRenderer16SplattingOptionsE,
                            __ZN3vst4core10DebugQueue11addTriangleERKNS1_13DebugTriangleE,
                            __ZN3vst4core10DebugQueue14add3DTransformERKNS1_16Debug3DTransformE,
                            __ZN3vst4core10DebugQueue16addConeWireframeERKNS1_9DebugConeE,
                            __ZN3vst4core10DebugQueue5clearEv,
                            __ZN3vst4core10DebugQueue6addBoxERKNS1_8DebugBoxE,
                            __ZN3vst4core10DebugQueue6createERKNS1_10CreateInfoE,
                            __ZN3vst4core10DebugQueue7addLineERKNS1_9DebugLineE,
                            __ZN3vst4core10DebugQueue8addErrorERKNS1_10DebugErrorE,
                            __ZN3vst4core10DebugQueue8addPointERKNS1_10DebugPointE,
                            __ZN3vst4core10DebugQueue9addCameraERKNS1_11DebugCameraE,
                            __ZN3vst4core10DebugQueue9addSphereERKNS1_11DebugSphereE,
                            __ZN3vst4core10DebugQueueC1Ev,
                            __ZN3vst4core10DebugQueueC2Ev,
                            __ZN3vst4core10DebugQueueD1Ev,
                            __ZN3vst4core10DebugQueueD2Ev,
                            __ZN3vst4core11memoryUsageEv,
                            __ZN3vst4core12MemoryBuffer5_initEPcS2_,
                            __ZN3vst4core12MemoryBuffer7seekoffExNSt3__18ios_base7seekdirEj,
                            __ZN3vst4core12MemoryBuffer7seekposENSt3__14fposI11__mbstate_tEEj,
                            __ZN3vst4core12MemoryBufferC1EP6NSData,
                            __ZN3vst4core12MemoryBufferC1EPcS2_,
                            __ZN3vst4core12MemoryBufferC2EP6NSData,
                            __ZN3vst4core12MemoryBufferC2EPcS2_,
                            __ZN3vst4core12extractZNearERKN4simd8float4x4E,
                            __ZN3vst4core13DebugRenderer6createERKNS1_10CreateInfoE,
                            __ZN3vst4core13DebugRenderer6updateERKNS1_10UpdateInfoE,
                            __ZN3vst4core13DebugRendererC1Ev,
                            __ZN3vst4core13DebugRendererC2Ev,
                            __ZN3vst4core13DebugRendererD1Ev,
                            __ZN3vst4core13DebugRendererD2Ev,
                            __ZN3vst4core13getCounterSetEPU19objcproto9MTLDevice11objc_objectP8NSString,
                            __ZN3vst4core13mergeFrustumsEN4simd8float4x4EDv2_fRKNSt3__14spanIKNS0_11FrustumInfoELm18446744073709551615EEE,
                            __ZN3vst4core14DebugQueueImpl11addTriangleERKNS0_10DebugQueue13DebugTriangleE,
                            __ZN3vst4core14DebugQueueImpl12_addBoxSolidERKNS0_10DebugQueue8DebugBoxE,
                            __ZN3vst4core14DebugQueueImpl13_reserveLinesEm,
                            __ZN3vst4core14DebugQueueImpl14_reservePointsEm,
                            __ZN3vst4core14DebugQueueImpl14add3DTransformERKNS0_10DebugQueue16Debug3DTransformE,
                            __ZN3vst4core14DebugQueueImpl15_addSphereSolidERKNS0_10DebugQueue11DebugSphereE,
                            __ZN3vst4core14DebugQueueImpl16_addBoxWireframeERKNS0_10DebugQueue8DebugBoxE,
                            __ZN3vst4core14DebugQueueImpl16_addPolygonStripERKNSt3__14spanI13packed_float3Lm18446744073709551615EEEDv4_f,
                            __ZN3vst4core14DebugQueueImpl16_checkCreateInfoERKNS0_10DebugQueue10CreateInfoE,
                            __ZN3vst4core14DebugQueueImpl16addConeWireframeERKNS0_10DebugQueue9DebugConeE,
                            __ZN3vst4core14DebugQueueImpl17_reserveTrianglesEm,
                            __ZN3vst4core14DebugQueueImpl18_resizeBufferToFitEPU19objcproto9MTLDevice11objc_objectPU19objcproto9MTLBuffer11objc_objectm,
                            __ZN3vst4core14DebugQueueImpl19_addSphereWireframeERKNS0_10DebugQueue11DebugSphereE,
                            __ZN3vst4core14DebugQueueImpl4initERKNS0_10DebugQueue10CreateInfoE,
                            __ZN3vst4core14DebugQueueImpl5clearEv,
                            __ZN3vst4core14DebugQueueImpl6addBoxERKNS0_10DebugQueue8DebugBoxE,
                            __ZN3vst4core14DebugQueueImpl7addLineERKNS0_10DebugQueue9DebugLineE,
                            __ZN3vst4core14DebugQueueImpl8addErrorERKNS0_10DebugQueue10DebugErrorE,
                            __ZN3vst4core14DebugQueueImpl8addPointERKNS0_10DebugQueue10DebugPointE,
                            __ZN3vst4core14DebugQueueImpl9addCameraERKNS0_10DebugQueue11DebugCameraE,
                            __ZN3vst4core14DebugQueueImpl9addSphereERKNS0_10DebugQueue11DebugSphereE,
                            __ZN3vst4core14makeProjectionERKNS0_17ProjectionInfoFOVE,
                            __ZN3vst4core14makeProjectionERKNS0_22ProjectionInfoTangentsE,
                            __ZN3vst4core15MemoryFootprint5toMiBEy,
                            __ZN3vst4core15computeViewportERKN4simd8float4x4EfRKDv2_tS7_,
                            __ZN3vst4core15dumpDebugObjectEP11objc_objectP8NSStringS4_b,
                            __ZN3vst4core15dumpDebugObjectEP11objc_objectP8NSStringb,
                            __ZN3vst4core15extractTangentsERKN4simd8float4x4E,
                            __ZN3vst4core15getMetalLibraryEPU19objcproto9MTLDevice11objc_object,
                            __ZN3vst4core16MetalBufferCache6bufferEP9IOSurfacePU19objcproto9MTLDevice11objc_object,
                            __ZN3vst4core16MetalBufferCacheC1Em,
                            __ZN3vst4core16MetalBufferCacheC2Em,
                            __ZN3vst4core16computeBoxZRangeERKDv3_fS3_RKN4simd8float4x4E,
                            __ZN3vst4core17DebugRendererImpl14_checkDrawInfoERKNS0_13DebugRenderer8DrawInfoE,
                            __ZN3vst4core17DebugRendererImpl16_checkCreateInfoERKNS0_13DebugRenderer10CreateInfoE,
                            __ZN3vst4core17DebugRendererImpl16_checkUpdateInfoERKNS0_13DebugRenderer10UpdateInfoEjNS0_17OffScreenRenderer6LayoutE,
                            __ZN3vst4core17DebugRendererImpl21_createRenderPipelineEPU21objcproto10MTLLibrary11objc_object14MTLPixelFormatS4_NS1_13PrimitiveTypeE,
                            __ZN3vst4core17DebugRendererImpl4initERKNS0_13DebugRenderer10CreateInfoE,
                            __ZN3vst4core17DebugRendererImpl6updateERKNS0_13DebugRenderer10UpdateInfoE,
                            __ZN3vst4core17OffScreenRenderer14_checkViewInfoERKNS1_8ViewInfoE,
                            __ZN3vst4core17OffScreenRenderer16_checkStaticInfoERKNS1_10StaticInfoE,
                            __ZN3vst4core17OffScreenRenderer16_checkUpdateInfoERKNS1_10UpdateInfoE,
                            __ZN3vst4core17OffScreenRenderer22_checkRenderTargetInfoERKNS1_16RenderTargetInfoE,
                            __ZN3vst4core17PipelineStateDump13FunctionCacheC1Ev,
                            __ZN3vst4core17PipelineStateDump13FunctionCacheC2Ev,
                            __ZN3vst4core17PipelineStateDump17addRenderPipelineERKNS0_29MetalRenderPipelineDescriptorEP8NSString,
                            __ZN3vst4core17PipelineStateDump18addComputePipelineERKNS0_30MetalComputePipelineDescriptorEP8NSString,
                            __ZN3vst4core17PipelineStateDump20_addVertexDescriptorEP19MTLVertexDescriptor,
                            __ZN3vst4core17PipelineStateDump20addFunctionConstantsERKNS0_21FunctionConstantsDumpEP8NSString,
                            __ZN3vst4core17PipelineStateDump21addTileRenderPipelineERKNS0_33MetalTileRenderPipelineDescriptorEP8NSString,
                            __ZN3vst4core17PipelineStateDump23_addSpecializedFunctionEP8NSStringS3_,
                            __ZN3vst4core17PipelineStateDumpC1Ev,
                            __ZN3vst4core17PipelineStateDumpC2Ev,
                            __ZN3vst4core17createMetalBufferEPU19objcproto9MTLDevice11objc_objectRKNS0_21MetalBufferCreateInfoE,
                            __ZN3vst4core17createMetalBufferEPU19objcproto9MTLDevice11objc_objectRKNS0_34MetalBufferCreateFromIOSurfaceInfoE,
                            __ZN3vst4core17is_internal_buildEv,
                            __ZN3vst4core17linearPixelFormatE14MTLPixelFormat,
                            __ZN3vst4core18TextureRegionCache5clearEv,
                            __ZN3vst4core18TextureRegionCache6insertEPU21objcproto10MTLTexture11objc_objectS3_Dv2_fS4_,
                            __ZN3vst4core18TextureRegionCacheC1Em,
                            __ZN3vst4core18TextureRegionCacheC2Em,
                            __ZN3vst4core18computeBoxNDCRangeERKDv3_fS3_RKN4simd8float4x4ES7_,
                            __ZN3vst4core18createMetalTextureEPU19objcproto9MTLDevice11objc_objectRKNS0_22MetalTextureCreateInfoE,
                            __ZN3vst4core18createMetalTextureEPU19objcproto9MTLDevice11objc_objectRKNS0_35MetalTextureCreateFromIOSurfaceInfoE,
                            __ZN3vst4core18createMetalTextureEPU19objcproto9MTLDevice11objc_objectRKNS0_36MetalTextureCreateFromDescriptorInfoE,
                            __ZN3vst4core18getMemoryFootprintEv,
                            __ZN3vst4core19GPUTimestampSampler10samplePassEP23MTLRenderPassDescriptor,
                            __ZN3vst4core19GPUTimestampSampler10samplePassEP24MTLComputePassDescriptor,
                            __ZN3vst4core19GPUTimestampSampler14resolveSamplesEv,
                            __ZN3vst4core19GPUTimestampSampler14syncTimestampsEv,
                            __ZN3vst4core19GPUTimestampSampler15nextSampleIndexENS1_11SampleStageE,
                            __ZN3vst4core19GPUTimestampSampler6createEPU19objcproto9MTLDevice11objc_objectm,
                            __ZN3vst4core19computeConeNDCRangeERKDv3_fS3_fRKDv2_fRKN4simd8float4x4ESA_,
                            __ZN3vst4core19createCounterBufferEPU19objcproto9MTLDevice11objc_objectPU24objcproto13MTLCounterSet11objc_objectm,
                            __ZN3vst4core19createMetalFunctionEPU21objcproto10MTLLibrary11objc_objectRKNS0_23MetalFunctionCreateInfoE,
                            __ZN3vst4core20MetalBufferAllocator10startFrameEv,
                            __ZN3vst4core20MetalBufferAllocator15AllocationRange5mergeERKS2_,
                            __ZN3vst4core20MetalBufferAllocator8allocateEj,
                            __ZN3vst4core20MetalBufferAllocatorC1EPU19objcproto9MTLDevice11objc_objectj,
                            __ZN3vst4core20MetalBufferAllocatorC2EPU19objcproto9MTLDevice11objc_objectj,
                            __ZN3vst4core20computeBoxDepthRangeERKDv3_fS3_RKN4simd8float4x4ES7_,
                            __ZN3vst4core20sphericalToCartesianEDv3_ffff,
                            __ZN3vst4core21FunctionConstantsDump7setBoolEbm,
                            __ZN3vst4core21FunctionConstantsDump7setUIntEjm,
                            __ZN3vst4core21FunctionConstantsDump8setFloatEfm,
                            __ZN3vst4core21FunctionConstantsDumpC1Ev,
                            __ZN3vst4core21FunctionConstantsDumpC2Ev,
                            __ZN3vst4core21MetalTextureViewCache4viewEPU21objcproto10MTLTexture11objc_object,
                            __ZN3vst4core21MetalTextureViewCache5clearEv,
                            __ZN3vst4core21MetalTextureViewCacheC1E14MTLPixelFormatm,
                            __ZN3vst4core21MetalTextureViewCacheC1ERKNS1_14ViewDescriptorEm,
                            __ZN3vst4core21MetalTextureViewCacheC2E14MTLPixelFormatm,
                            __ZN3vst4core21MetalTextureViewCacheC2ERKNS1_14ViewDescriptorEm,
                            __ZN3vst4core21VertexAttributeBuffer15checkCreateInfoERKNS1_10CreateInfoE,
                            __ZN3vst4core21VertexAttributeBuffer23makeIOSurfacePropertiesE15MTLVertexFormatmP8NSString,
                            __ZN3vst4core21VertexAttributeBuffer6createERKNS1_10CreateInfoE,
                            __ZN3vst4core21computeTransformedBoxERKDv3_fS3_RKN4simd8float4x4E,
                            __ZN3vst4core21getMetalBinaryArchiveEPU19objcproto9MTLDevice11objc_object,
                            __ZN3vst4core21unarchiveDumpedObjectEP10objc_classP8NSString,
                            __ZN3vst4core23computeFrustumFromQuadsEN4simd8float4x4ERKNS0_8QuadInfoES5_,
                            __ZN3vst4core23dumpDebugObjectWithPathEP11objc_objectP8NSStringb,
                            __ZN3vst4core25createMetalRenderPipelineEPU21objcproto10MTLLibrary11objc_objectRKNS0_29MetalRenderPipelineDescriptorE,
                            __ZN3vst4core25intersectFrustumWithPlaneEN4simd8float4x4ES2_Dv3_fS3_,
                            __ZN3vst4core26createMetalComputePipelineEPU21objcproto10MTLLibrary11objc_objectP8NSStringP25MTLFunctionConstantValues,
                            __ZN3vst4core26createMetalComputePipelineEPU21objcproto10MTLLibrary11objc_objectRKNS0_30MetalComputePipelineDescriptorE,
                            __ZN3vst4core27RasterizationRateController16createDescriptorERKDv2_tm,
                            __ZN3vst4core27RasterizationRateController6createERKNS1_10CreateInfoE,
                            __ZN3vst4core27RasterizationRateController6createERKNS1_34CreateWithRasterizationRateMapInfoE,
                            __ZN3vst4core27RasterizationRateController6updateERKNS1_10UpdateInfoE,
                            __ZN3vst4core27RasterizationRateControllerC1Ev,
                            __ZN3vst4core27RasterizationRateControllerC2Ev,
                            __ZN3vst4core27RasterizationRateControllerD1Ev,
                            __ZN3vst4core27RasterizationRateControllerD2Ev,
                            __ZN3vst4core27createMetalVertexDescriptorERKNSt3__14spanIK15MTLVertexFormatLm18446744073709551615EEE,
                            __ZN3vst4core28createMetalTextureDescriptorERKNS0_22MetalTextureDescriptorE,
                            __ZN3vst4core28deserializedObjectFromObjectEP11objc_object,
                            __ZN3vst4core28viewSpaceBoxToPhysicalCoordsERKNS0_5Box2DERKDv2_fPU34objcproto23MTLRasterizationRateMap11objc_objectj,
                            __ZN3vst4core29bytesPerElementForPixelFormatE14MTLPixelFormat,
                            __ZN3vst4core29createMetalTileRenderPipelineEPU21objcproto10MTLLibrary11objc_objectRKNS0_33MetalTileRenderPipelineDescriptorE,
                            __ZN3vst4core31RasterizationRateControllerImpl16_checkCreateInfoERKNS0_27RasterizationRateController10CreateInfoE,
                            __ZN3vst4core31RasterizationRateControllerImpl16_checkCreateInfoERKNS0_27RasterizationRateController34CreateWithRasterizationRateMapInfoE,
                            __ZN3vst4core31RasterizationRateControllerImpl16_checkUpdateInfoERKNS0_27RasterizationRateController10UpdateInfoEj,
                            __ZN3vst4core31RasterizationRateControllerImpl4initERKNS0_27RasterizationRateController10CreateInfoE,
                            __ZN3vst4core31RasterizationRateControllerImpl4initERKNS0_27RasterizationRateController34CreateWithRasterizationRateMapInfoE,
                            __ZN3vst4core31RasterizationRateControllerImpl6updateERKNS0_27RasterizationRateController10UpdateInfoE,
                            __ZN3vst4core32computeTileAlignedPaddedNDCRangeERKNS0_18TileAlignedBoxInfoE,
                            __ZN3vst4core34createIndirectComputeCommandBufferEPU19objcproto9MTLDevice11objc_objectRKNS0_36MetalIndirectCommandBufferCreateInfoE,
                            __ZN3vst4core35computeMetalDispatchThreadgroupSizeEPU34objcproto23MTLComputePipelineState11objc_objectDv2_ts,
                            __ZN3vst4core35computeMetalDispatchThreadgroupSizeEPU34objcproto23MTLComputePipelineState11objc_objectm,
                            __ZN3vst4core39logicalCoordinatesToPhysicalCoordinatesERKNS0_5Box2DEPU34objcproto23MTLRasterizationRateMap11objc_objectj,
                            __ZN3vst4core39physicalCoordinatesToLogicalCoordinatesERKNS0_5Box2DEPU34objcproto23MTLRasterizationRateMap11objc_objectj,
                            __ZN3vst4core3obj27uniqueVertexFromObjContentsERKNS0_11ObjContentsE,
                            __ZN3vst4core3obj4readEPKcb,
                            __ZN3vst4core3obj4readERNSt3__113basic_istreamIcNS2_11char_traitsIcEEEEb,
                            __ZN3vst4core3obj5writeERKNS0_11ObjContentsEPKc,
                            __ZN3vst4core3obj5writeERKNS0_11ObjContentsERNSt3__113basic_ostreamIcNS5_11char_traitsIcEEEE,
                            __ZN3vst4core3ply4readERNSt3__113basic_istreamIcNS2_11char_traitsIcEEEE,
                            __ZN3vst4core3ply5writeERNSt3__113basic_ostreamIcNS2_11char_traitsIcEEEERKNS2_6vectorINS1_7ElementENS2_9allocatorIS9_EEEE,
                            __ZN3vst4core41computeNonUniformMetalDispatchThreadsSizeEPU34objcproto23MTLComputePipelineState11objc_objectDv2_ts,
                            __ZN3vst4core41computeNonUniformMetalDispatchThreadsSizeEPU34objcproto23MTLComputePipelineState11objc_objectm,
                            __ZN3vst4core41createMetalRasterizationRateMapDescriptorERKNS0_35MetalRasterizationRateMapDescriptorE,
                            __ZN3vst4core4timeEv,
                            __ZN3vst4core9Transform10fromMatrixERKN4simd8float4x4E,
                            __ZN3vst4core9Transform4lerpERKS1_S3_f,
                            __ZN3vst5splat10VolumeData13dumpPipelinesEP8NSString,
                            __ZN3vst5splat10VolumeData17updateBoundingBoxEv,
                            __ZN3vst5splat10VolumeData19isSupportedFileTypeEP8NSString,
                            __ZN3vst5splat10VolumeData21prepareMetalResourcesEPU19objcproto9MTLDevice11objc_objectb,
                            __ZN3vst5splat10VolumeData6createERKNS1_18CreateFromBlobInfoE,
                            __ZN3vst5splat10VolumeData6createERKNS1_18CreateFromDumpInfoE,
                            __ZN3vst5splat10VolumeData6createERKNS1_21CreateFromBuffersInfoE,
                            __ZN3vst5splat10VolumeData6createERKNS1_23CreateFromFloatDataInfoE,
                            __ZN3vst5splat10VolumeData6createERKNS1_24CreateFromAttributesInfoE,
                            __ZN3vst5splat10VolumeData6createERKNS1_32CreateFromPersonaCompressionInfoE,
                            __ZN3vst5splat10VolumeData6createERKNS1_32CreateFromPersonaModelOutputInfoE,
                            __ZN3vst5splat10VolumeData6setBoxERKNSt3__15tupleIJDv3_fS4_EEE,
                            __ZN3vst5splat10VolumeData6updateERKNS1_32UpdateFromPersonaModelOutputInfoE,
                            __ZN3vst5splat10VolumeData9sharedPtrEv,
                            __ZN3vst5splat10VolumeDataC1ENS1_7PrivateE,
                            __ZN3vst5splat10VolumeDataC2ENS1_7PrivateE,
                            __ZN3vst5splat10VolumeDataD1Ev,
                            __ZN3vst5splat10VolumeDataD2Ev,
                            __ZN3vst5splat11TextureData19isSupportedFileTypeEP8NSString,
                            __ZN3vst5splat11TextureData19prepareMetalTextureEPU19objcproto9MTLDevice11objc_object,
                            __ZN3vst5splat11TextureData6createERKNS1_18CreateFromBlobInfoE,
                            __ZN3vst5splat11TextureData6createERKNS1_23CreateFromIOSurfaceInfoE,
                            __ZN3vst5splat11TextureData9sharedPtrEv,
                            __ZN3vst5splat11TextureDataC1ENS1_7PrivateE,
                            __ZN3vst5splat11TextureDataC2ENS1_7PrivateE,
                            __ZN3vst5splat11TextureDataD1Ev,
                            __ZN3vst5splat11TextureDataD2Ev,
                            __ZN3vst5splat12BaseRenderer13dumpPipelinesERKNS1_8DumpInfoE,
                            __ZN3vst5splat12BaseRenderer14_checkCullInfoERKNS1_8CullInfoE,
                            __ZN3vst5splat12BaseRenderer14_checkDrawInfoERKNS1_8DrawInfoE,
                            __ZN3vst5splat12BaseRenderer16_checkCreateInfoERKNS1_10CreateInfoE,
                            __ZN3vst5splat12BaseRenderer16_checkUpdateInfoERKNS1_10UpdateInfoEmmNS_4core17OffScreenRenderer6LayoutENS1_9TechniqueEjbbNS0_14packing_shared6MethodEb,
                            __ZN3vst5splat12BaseRenderer17_checkDrawOptionsERKNS1_11DrawOptionsE,
                            __ZN3vst5splat12BaseRenderer18_checkTextureBoundERKNS1_13TextureBoundsEm,
                            __ZN3vst5splat12BaseRenderer20_checkCullingOptionsERKNS1_14CullingOptionsERKNS0_10VolumeDataE,
                            __ZN3vst5splat12BaseRenderer23_checkVisibleSplatsInfoERKNS1_17VisibleSplatsInfoERKNS0_10VolumeDataEb,
                            __ZN3vst5splat12BaseRenderer26_checkGridRenderTargetInfoERKNS_4core17OffScreenRenderer16RenderTargetInfoERKNS1_20GridRenderTargetInfoE,
                            __ZN3vst5splat12BaseRenderer28renderTargetSizeFromViewportEDv2_f,
                            __ZN3vst5splat12BaseRenderer34_checkCustomParamsRenderTargetInfoERKNS_4core17OffScreenRenderer16RenderTargetInfoERKNS1_28CustomParamsRenderTargetInfoE,
                            __ZN3vst5splat12BaseRenderer6createERKNS1_10CreateInfoE,
                            __ZN3vst5splat12HWRasterizer13PipelineCache13findAndInsertEjm,
                            __ZN3vst5splat12HWRasterizer13PipelineCacheC1Ev,
                            __ZN3vst5splat12HWRasterizer13PipelineCacheC2Ev,
                            __ZN3vst5splat12HWRasterizer13_findPipelineEj,
                            __ZN3vst5splat12HWRasterizer13dumpPipelinesERKNS0_12BaseRenderer8DumpInfoE,
                            __ZN3vst5splat12HWRasterizer14_checkCullInfoERKNS0_12BaseRenderer8CullInfoE,
                            __ZN3vst5splat12HWRasterizer14_checkDrawInfoERKNS0_12BaseRenderer8DrawInfoE,
                            __ZN3vst5splat12HWRasterizer16_checkCreateInfoERKNS0_12BaseRenderer10CreateInfoE,
                            __ZN3vst5splat12HWRasterizer16_checkUpdateInfoERKNS0_12BaseRenderer10UpdateInfoEmmNS_4core17OffScreenRenderer6LayoutENS2_9TechniqueEjbbNS0_14packing_shared6MethodEb,
                            __ZN3vst5splat12HWRasterizer16_makeCreateFlagsERKNS0_12BaseRenderer13CreateOptionsE,
                            __ZN3vst5splat12HWRasterizer20_gridSizeForPipelineEj,
                            __ZN3vst5splat12HWRasterizer21_checkComputePipelineEPU34objcproto23MTLComputePipelineState11objc_object,
                            __ZN3vst5splat12HWRasterizer26_computePhysicalTileRegionERKDv3_fS4_RKN4simd8float4x4ERKNS_4core17OffScreenRenderer8ViewInfoERKNSA_16RenderTargetInfoE,
                            __ZN3vst5splat12HWRasterizer27_dumpFunctionConstantValuesEjNS0_6shared9PrimitiveENS_4core22color_utilities_shared10ColorSpaceEjj,
                            __ZN3vst5splat12HWRasterizer28_recreateSortBuffersIfNeededEjj,
                            __ZN3vst5splat12HWRasterizer29_createFunctionConstantValuesEjNS0_6shared9PrimitiveENS_4core22color_utilities_shared10ColorSpaceEjj,
                            __ZN3vst5splat12HWRasterizer31_updateTileDepthTextureIfNeededEDv2_t14MTLTextureTypemj,
                            __ZN3vst5splat12HWRasterizer33_recreateDebuggingBuffersIfNeededEDv3_tj,
                            __ZN3vst5splat12HWRasterizer35_recreateVisibleSplatBitSetIfNeededEjj,
                            __ZN3vst5splat12HWRasterizer39_computeRecordedPixelFragmentArrayStatsEPU19objcproto9MTLBuffer11objc_objectS3_,
                            __ZN3vst5splat12HWRasterizer39_recreateMemorylessDepthTextureIfNeededEDv2_t14MTLTextureTypemj,
                            __ZN3vst5splat12HWRasterizer41_recreateMemorylessStencilTextureIfNeededEDv2_t14MTLTextureTypemj,
                            __ZN3vst5splat12HWRasterizer4initERKNS0_12BaseRenderer10CreateInfoE,
                            __ZN3vst5splat12HWRasterizer56_recreateInternalMaxVisibilityContributionBufferIfNeededEjj,
                            __ZN3vst5splat12HWRasterizer6updateERKNS0_12BaseRenderer10UpdateInfoE,
                            __ZN3vst5splat12MeshDataImpl16_checkCreateInfoERKNS0_8MeshData18CreateFromBlobInfoE,
                            __ZN3vst5splat12MeshDataImpl16_checkCreateInfoERKNS0_8MeshData21CreateFromBuffersInfoE,
                            __ZN3vst5splat12MeshDataImpl16_checkCreateInfoERKNS0_8MeshData37CreateFromCompactVertexAttributesInfoE,
                            __ZN3vst5splat12MeshDataImpl19prepareMetalBuffersEPU19objcproto9MTLDevice11objc_object,
                            __ZN3vst5splat12MeshDataImpl4initERKNS0_8MeshData18CreateFromBlobInfoE,
                            __ZN3vst5splat12MeshDataImpl4initERKNS0_8MeshData21CreateFromBuffersInfoE,
                            __ZN3vst5splat12MeshDataImpl4initERKNS0_8MeshData37CreateFromCompactVertexAttributesInfoE,
                            __ZN3vst5splat12MeshDataImpl8_loadObjEP6NSData,
                            __ZN3vst5splat12MeshDataImplC1Ev,
                            __ZN3vst5splat12MeshDataImplC2Ev,
                            __ZN3vst5splat12MeshRenderer6createERKNS1_10CreateInfoE,
                            __ZN3vst5splat12MeshRenderer6updateERKNS1_10UpdateInfoE,
                            __ZN3vst5splat12MeshRendererC1Ev,
                            __ZN3vst5splat12MeshRendererC2Ev,
                            __ZN3vst5splat12MeshRendererD1Ev,
                            __ZN3vst5splat12MeshRendererD2Ev,
                            __ZN3vst5splat12SWRasterizer14_checkCullInfoERKNS0_12BaseRenderer8CullInfoE,
                            __ZN3vst5splat12SWRasterizer14_checkDrawInfoERKNS0_12BaseRenderer8DrawInfoE,
                            __ZN3vst5splat12SWRasterizer16_checkCreateInfoERKNS0_12BaseRenderer10CreateInfoE,
                            __ZN3vst5splat12SWRasterizer16_checkUpdateInfoERKNS0_12BaseRenderer10UpdateInfoEj,
                            __ZN3vst5splat12SWRasterizer21_checkComputePipelineEPU34objcproto23MTLComputePipelineState11objc_object,
                            __ZN3vst5splat12SWRasterizer24_recreateBuffersIfNeededEj,
                            __ZN3vst5splat12SWRasterizer4initERKNS0_12BaseRenderer10CreateInfoE,
                            __ZN3vst5splat12SWRasterizer6updateERKNS0_12BaseRenderer10UpdateInfoE,
                            __ZN3vst5splat13ProxyRenderer15checkUpdateInfoERKNS1_10UpdateInfoEmNS_4core17OffScreenRenderer6LayoutEb,
                            __ZN3vst5splat13ProxyRenderer6createERKNS1_10CreateInfoE,
                            __ZN3vst5splat13ProxyRenderer6updateERKNS1_10UpdateInfoE,
                            __ZN3vst5splat13ProxyRendererC1Ev,
                            __ZN3vst5splat13ProxyRendererC2Ev,
                            __ZN3vst5splat13ProxyRendererD1Ev,
                            __ZN3vst5splat13ProxyRendererD2Ev,
                            __ZN3vst5splat14VolumeDataImpl10_loadPListEP6NSData,
                            __ZN3vst5splat14VolumeDataImpl10_loadQuiltEPKDhRKNS1_15QuiltDescriptorEPK12packed_half4RKNSt3__18optionalINS0_10VolumeData19ActiveSplatDataInfoEEENS0_14packing_shared6MethodE,
                            __ZN3vst5splat14VolumeDataImpl13_numSHVectorsEmm,
                            __ZN3vst5splat14VolumeDataImpl13dumpPipelinesEP8NSString,
                            __ZN3vst5splat14VolumeDataImpl16_checkCreateInfoERKNS0_10VolumeData18CreateFromBlobInfoE,
                            __ZN3vst5splat14VolumeDataImpl16_checkCreateInfoERKNS0_10VolumeData18CreateFromDumpInfoE,
                            __ZN3vst5splat14VolumeDataImpl16_checkCreateInfoERKNS0_10VolumeData21CreateFromBuffersInfoE,
                            __ZN3vst5splat14VolumeDataImpl16_checkCreateInfoERKNS0_10VolumeData23CreateFromFloatDataInfoE,
                            __ZN3vst5splat14VolumeDataImpl16_checkCreateInfoERKNS0_10VolumeData32CreateFromPersonaCompressionInfoE,
                            __ZN3vst5splat14VolumeDataImpl16_checkCreateInfoERKNS0_10VolumeData32CreateFromPersonaModelOutputInfoE,
                            __ZN3vst5splat14VolumeDataImpl16_checkUpdateInfoERKNS0_10VolumeData32UpdateFromPersonaModelOutputInfoEm,
                            __ZN3vst5splat14VolumeDataImpl16_load3DGSFromPlyERKNS0_12FormatTraitsILNS0_10VolumeData6FormatE0EE16VertexDescriptorE,
                            __ZN3vst5splat14VolumeDataImpl17updateBoundingBoxEv,
                            __ZN3vst5splat14VolumeDataImpl19_loadReduced3DGSPlyENSt3__14spanIKNS_4core3ply7ElementELm18446744073709551615EEE,
                            __ZN3vst5splat14VolumeDataImpl21prepareMetalResourcesEPU19objcproto9MTLDevice11objc_objectb,
                            __ZN3vst5splat14VolumeDataImpl22_createUpdatePipelinesEPU19objcproto9MTLDevice11objc_objectb,
                            __ZN3vst5splat14VolumeDataImpl22_loadBetaSplatsFromPlyERKNS0_12FormatTraitsILNS0_10VolumeData6FormatE3EE16VertexDescriptorE,
                            __ZN3vst5splat14VolumeDataImpl23_deduceVolumeDataFormatERKNS_4core3ply7ElementE,
                            __ZN3vst5splat14VolumeDataImpl27_trisplatsUpdateBoundingBoxEv,
                            __ZN3vst5splat14VolumeDataImpl29_reduced3DGSUpdateBoundingBoxEv,
                            __ZN3vst5splat14VolumeDataImpl4initEONS0_14DataBetaSplatsE,
                            __ZN3vst5splat14VolumeDataImpl4initEONS0_8Data3DGSE,
                            __ZN3vst5splat14VolumeDataImpl4initERKNS0_10VolumeData18CreateFromBlobInfoE,
                            __ZN3vst5splat14VolumeDataImpl4initERKNS0_10VolumeData18CreateFromDumpInfoE,
                            __ZN3vst5splat14VolumeDataImpl4initERKNS0_10VolumeData21CreateFromBuffersInfoE,
                            __ZN3vst5splat14VolumeDataImpl4initERKNS0_10VolumeData23CreateFromFloatDataInfoE,
                            __ZN3vst5splat14VolumeDataImpl4initERKNS0_10VolumeData24CreateFromAttributesInfoE,
                            __ZN3vst5splat14VolumeDataImpl4initERKNS0_10VolumeData32CreateFromPersonaCompressionInfoE,
                            __ZN3vst5splat14VolumeDataImpl4initERKNS0_10VolumeData32CreateFromPersonaModelOutputInfoE,
                            __ZN3vst5splat14VolumeDataImpl6updateERKNS0_10VolumeData32UpdateFromPersonaModelOutputInfoE,
                            __ZN3vst5splat14VolumeDataImpl8_loadPlyEP6NSData,
                            __ZN3vst5splat14VolumeDataImplC1Ev,
                            __ZN3vst5splat14VolumeDataImplC2Ev,
                            __ZN3vst5splat15LayerCompositor6createERKNS1_10CreateInfoE,
                            __ZN3vst5splat15LayerCompositor6updateERKNS1_10UpdateInfoE,
                            __ZN3vst5splat15LayerCompositorC1Ev,
                            __ZN3vst5splat15LayerCompositorC2Ev,
                            __ZN3vst5splat15LayerCompositorD1Ev,
                            __ZN3vst5splat15LayerCompositorD2Ev,
                            __ZN3vst5splat15TextureDataImpl16_checkCreateInfoERKNS0_11TextureData18CreateFromBlobInfoE,
                            __ZN3vst5splat15TextureDataImpl16_checkCreateInfoERKNS0_11TextureData23CreateFromIOSurfaceInfoE,
                            __ZN3vst5splat15TextureDataImpl19prepareMetalTextureEPU19objcproto9MTLDevice11objc_object,
                            __ZN3vst5splat15TextureDataImpl4initERKNS0_11TextureData18CreateFromBlobInfoE,
                            __ZN3vst5splat15TextureDataImpl4initERKNS0_11TextureData23CreateFromIOSurfaceInfoE,
                            __ZN3vst5splat15TextureDataImpl8_loadPngEP6NSDatab,
                            __ZN3vst5splat15TextureDataImplC1Ev,
                            __ZN3vst5splat15TextureDataImplC2Ev,
                            __ZN3vst5splat16MeshRendererImpl14_checkDrawInfoERKNS0_12MeshRenderer8DrawInfoE,
                            __ZN3vst5splat16MeshRendererImpl16_checkCreateInfoERKNS0_12MeshRenderer10CreateInfoE,
                            __ZN3vst5splat16MeshRendererImpl16_checkUpdateInfoERKNS0_12MeshRenderer10UpdateInfoEm,
                            __ZN3vst5splat16MeshRendererImpl21_createRenderPipelineEPU21objcproto10MTLLibrary11objc_objectNS0_12MeshRenderer9TechniqueE14MTLPixelFormatS6_b,
                            __ZN3vst5splat16MeshRendererImpl4initERKNS0_12MeshRenderer10CreateInfoE,
                            __ZN3vst5splat16MeshRendererImpl6updateERKNS0_12MeshRenderer10UpdateInfoE,
                            __ZN3vst5splat17ProxyRendererImpl14_checkCullInfoERKNS0_13ProxyRenderer8CullInfoE,
                            __ZN3vst5splat17ProxyRendererImpl14_checkDrawInfoERKNS0_13ProxyRenderer8DrawInfoE,
                            __ZN3vst5splat17ProxyRendererImpl15checkUpdateInfoERKNS0_13ProxyRenderer10UpdateInfoEmNS_4core17OffScreenRenderer6LayoutEb,
                            __ZN3vst5splat17ProxyRendererImpl16_checkCreateInfoERKNS0_13ProxyRenderer10CreateInfoE,
                            __ZN3vst5splat17ProxyRendererImpl19_updateRenderTargetERKNS0_13ProxyRenderer12RenderTargetEjRKNSt3__18optionalINS2_21RasterizationRateInfoEEE,
                            __ZN3vst5splat17ProxyRendererImpl20_updateVisibleSplatsERKNS0_10VolumeDataEjb,
                            __ZN3vst5splat17ProxyRendererImpl22_checkSplattingOptionsERKNS0_13ProxyRenderer16SplattingOptionsE,
                            __ZN3vst5splat17ProxyRendererImpl25_updateVolumeProxyBuffersERKNS0_13ProxyRenderer18VolumeProxyBuffersEjj,
                            __ZN3vst5splat17ProxyRendererImpl28_checkRenderTargetScreenSizeERKDv2_t,
                            __ZN3vst5splat17ProxyRendererImpl29_recreateRenderTargetIfNeededENSt3__14spanIKNS1_30ViewInfosForRenderTargetUpdateELm18446744073709551615EEEjRKNS2_8optionalINS0_13ProxyRenderer21RasterizationRateInfoEEENS0_12BaseRenderer12GridTileSizeE,
                            __ZN3vst5splat17ProxyRendererImpl31_updateRasterizationRateOptionsERKNS0_29ProxyRendererImplRenderTargetERKNS0_13ProxyRenderer21RasterizationRateInfoENSt3__14spanIKNS1_30ViewInfosForRenderTargetUpdateELm18446744073709551615EEENSA_IKNS1_32VolumeInfosForRenderTargetUpdateELm18446744073709551615EEE,
                            __ZN3vst5splat17ProxyRendererImpl35_checkRenderTargetDescriptorOptionsERKNS0_13ProxyRenderer26RenderTargetDescriptorInfoE,
                            __ZN3vst5splat17ProxyRendererImpl35_recreateVolumeProxyBuffersIfNeededENSt3__14spanIKNS1_30ViewInfosForRenderTargetUpdateELm18446744073709551615EEENS3_IKNS1_32VolumeInfosForRenderTargetUpdateELm18446744073709551615EEEjNS0_12BaseRenderer12GridTileSizeEt,
                            __ZN3vst5splat17ProxyRendererImpl4initERKNS0_13ProxyRenderer10CreateInfoE,
                            __ZN3vst5splat17ProxyRendererImpl6updateERKNS0_13ProxyRenderer10UpdateInfoE,
                            __ZN3vst5splat19LayerCompositorImpl14_checkDrawInfoERKNS0_15LayerCompositor8DrawInfoE,
                            __ZN3vst5splat19LayerCompositorImpl16_checkCreateInfoERKNS0_15LayerCompositor10CreateInfoE,
                            __ZN3vst5splat19LayerCompositorImpl16_checkUpdateInfoERKNS0_15LayerCompositor10UpdateInfoEmmNS2_9TechniqueE,
                            __ZN3vst5splat19LayerCompositorImpl21_createRenderPipelineEPU21objcproto10MTLLibrary11objc_object14MTLPixelFormatS4_NS0_15LayerCompositor9TechniqueEbNS_4core17OffScreenRenderer6LayoutEb,
                            __ZN3vst5splat19LayerCompositorImpl28_recreateQuadBuffersIfNeededEj,
                            __ZN3vst5splat19LayerCompositorImpl4initERKNS0_15LayerCompositor10CreateInfoE,
                            __ZN3vst5splat19LayerCompositorImpl6updateERKNS0_15LayerCompositor10UpdateInfoE,
                            __ZN3vst5splat19PrimitiveRasterizer13dumpPipelinesERNS_4core17PipelineStateDumpERKNS1_8DumpInfoE,
                            __ZN3vst5splat19PrimitiveRasterizer6createERKNS1_10CreateInfoE,
                            __ZN3vst5splat23GaussianSplatRasterizer13PipelineCache13findAndInsertEjm,
                            __ZN3vst5splat23GaussianSplatRasterizer13PipelineCacheC1Ev,
                            __ZN3vst5splat23GaussianSplatRasterizer13PipelineCacheC2Ev,
                            __ZN3vst5splat23GaussianSplatRasterizer13dumpPipelinesERNS_4core17PipelineStateDumpERKNS0_19PrimitiveRasterizer8DumpInfoE,
                            __ZN3vst5splat23GaussianSplatRasterizer16_checkCreateInfoERKNS0_19PrimitiveRasterizer10CreateInfoE,
                            __ZN3vst5splat23GaussianSplatRasterizer16_makeCreateFlagsERKNS0_19PrimitiveRasterizer10CreateInfoE,
                            __ZN3vst5splat23GaussianSplatRasterizer27_dumpFunctionConstantValuesENS_4core17OffScreenRenderer6LayoutEjNS0_6shared9PrimitiveEjj,
                            __ZN3vst5splat23GaussianSplatRasterizer29_createFunctionConstantValuesENS_4core17OffScreenRenderer6LayoutEjNS0_6shared9PrimitiveEjj,
                            __ZN3vst5splat23GaussianSplatRasterizer31_createRenderPipelineDescriptorE14MTLPixelFormatNS0_19PrimitiveRasterizer16ImageBlockOutputENS0_6shared9PrimitiveENS0_10VolumeData6FormatEj,
                            __ZN3vst5splat23GaussianSplatRasterizer33_createOccluderPipelineDescriptorE14MTLPixelFormatNS0_19PrimitiveRasterizer16ImageBlockOutputEj,
                            __ZN3vst5splat23GaussianSplatRasterizer4initERKNS0_19PrimitiveRasterizer10CreateInfoE,
                            __ZN3vst5splat23GaussianSplatRasterizer6updateERKNS0_19PrimitiveRasterizer10UpdateInfoE,
                            __ZN3vst5splat23TriangleSplatRasterizer16_checkCreateInfoERKNS0_19PrimitiveRasterizer10CreateInfoE,
                            __ZN3vst5splat23TriangleSplatRasterizer29_createFunctionConstantValuesENS_4core17OffScreenRenderer6LayoutEjbbbj,
                            __ZN3vst5splat23TriangleSplatRasterizer31_createRenderPipelineDescriptorE14MTLPixelFormatNS0_19PrimitiveRasterizer16ImageBlockOutputEj,
                            __ZN3vst5splat23TriangleSplatRasterizer4initERKNS0_19PrimitiveRasterizer10CreateInfoE,
                            __ZN3vst5splat23TriangleSplatRasterizer6updateERKNS0_19PrimitiveRasterizer10UpdateInfoE,
                            __ZN3vst5splat2io12writePlyFileERKNS0_10VolumeDataEP8NSStringRKNS2_15PlyWriteOptionsE,
                            __ZN3vst5splat2io29makePlyElementsFromVolumeDataERKNS0_10VolumeDataERKNS2_15PlyWriteOptionsE,
                            __ZN3vst5splat8MeshData19isSupportedFileTypeEP8NSString,
                            __ZN3vst5splat8MeshData19prepareMetalBuffersEPU19objcproto9MTLDevice11objc_object,
                            __ZN3vst5splat8MeshData6createERKNS1_18CreateFromBlobInfoE,
                            __ZN3vst5splat8MeshData6createERKNS1_21CreateFromBuffersInfoE,
                            __ZN3vst5splat8MeshData6createERKNS1_37CreateFromCompactVertexAttributesInfoE,
                            __ZN3vst5splat8MeshDataC1Ev,
                            __ZN3vst5splat8MeshDataC2Ev,
                            __ZN3vst5splat8MeshDataD1Ev,
                            __ZN3vst5splat8MeshDataD2Ev,
                            __ZNK3vst10controller13LiteHUDClient18isConnectionActiveEv,
                            __ZNK3vst10controller17LiteHUDClientImpl18isConnectionActiveEv,
                            __ZNK3vst4core10DebugQueue12metalBuffersEv,
                            __ZNK3vst4core10DebugQueue15numLineVerticesEv,
                            __ZNK3vst4core10DebugQueue16numPointVerticesEv,
                            __ZNK3vst4core10DebugQueue19numTriangleVerticesEv,
                            __ZNK3vst4core10DebugQueue7isEmptyEv,
                            __ZNK3vst4core13DebugRenderer4drawERKNS1_8DrawInfoE,
                            __ZNK3vst4core14DebugQueueImpl12metalBuffersEv,
                            __ZNK3vst4core14DebugQueueImpl15numLineVerticesEv,
                            __ZNK3vst4core14DebugQueueImpl16numPointVerticesEv,
                            __ZNK3vst4core14DebugQueueImpl19numTriangleVerticesEv,
                            __ZNK3vst4core14DebugQueueImpl7isEmptyEv,
                            __ZNK3vst4core15MemoryFootprint7isValidEv,
                            __ZNK3vst4core17DebugRendererImpl22_renderDebugPrimitivesEPU34objcproto23MTLRenderCommandEncoder11objc_objectjj,
                            __ZNK3vst4core17DebugRendererImpl4drawERKNS0_13DebugRenderer8DrawInfoE,
                            __ZNK3vst4core17PipelineStateDump4dumpEP8NSString,
                            __ZNK3vst4core20MetalBufferAllocator4Page19contiguousFreeSpaceEj,
                            __ZNK3vst4core20MetalBufferAllocator8endFrameEPU27objcproto16MTLCommandBuffer11objc_object,
                            __ZNK3vst4core21FunctionConstantsDump4dumpEv,
                            __ZNK3vst4core21VertexAttributeBuffer14makeDumpObjectEv,
                            __ZNK3vst4core21VertexAttributeBuffer15bytesPerElementEv,
                            __ZNK3vst4core21VertexAttributeBuffer17matchesPropertiesERKS1_,
                            __ZNK3vst4core21VertexAttributeBuffer19iosurfacePropertiesEv,
                            __ZNK3vst4core21VertexAttributeBuffer5cloneEv,
                            __ZNK3vst4core21VertexAttributeBuffer8numBytesEv,
                            __ZNK3vst4core21VertexAttributeBuffer9emptyLikeEv,
                            __ZNK3vst4core27RasterizationRateController3mapEv,
                            __ZNK3vst4core9Transform8toMatrixEv,
                            __ZNK3vst5splat10VolumeData10attributesEv,
                            __ZNK3vst5splat10VolumeData10colorSpaceEv,
                            __ZNK3vst5splat10VolumeData11splatColorsEv,
                            __ZNK3vst5splat10VolumeData11splatScalesEv,
                            __ZNK3vst5splat10VolumeData12splatNormalsEv,
                            __ZNK3vst5splat10VolumeData13packingMethodEv,
                            __ZNK3vst5splat10VolumeData14makeDumpObjectEv,
                            __ZNK3vst5splat10VolumeData14metalResourcesEv,
                            __ZNK3vst5splat10VolumeData14splatPositionsEv,
                            __ZNK3vst5splat10VolumeData14splatRotationsEv,
                            __ZNK3vst5splat10VolumeData16makePackedVolumeENS0_14packing_shared6MethodE,
                            __ZNK3vst5splat10VolumeData16supportedSHOrderEv,
                            __ZNK3vst5splat10VolumeData17splatCustomParamsEv,
                            __ZNK3vst5splat10VolumeData18makeUnpackedVolumeEv,
                            __ZNK3vst5splat10VolumeData22makePersonaModelOutputERKNS1_26MakePersonaModelOutputInfoE,
                            __ZNK3vst5splat10VolumeData3boxEv,
                            __ZNK3vst5splat10VolumeData6formatEv,
                            __ZNK3vst5splat10VolumeData8centroidEv,
                            __ZNK3vst5splat10VolumeData8splatSHsEv,
                            __ZNK3vst5splat10VolumeData8writePlyEP8NSStringNS1_15PlyWriteOptionsE,
                            __ZNK3vst5splat10VolumeData9numSplatsEv,
                            __ZNK3vst5splat10VolumeData9sharedPtrEv,
                            __ZNK3vst5splat11TextureData12metalTextureEv,
                            __ZNK3vst5splat11TextureData4sizeEv,
                            __ZNK3vst5splat11TextureData9iosurfaceEv,
                            __ZNK3vst5splat11TextureData9sharedPtrEv,
                            __ZNK3vst5splat12HWRasterizer11_clearTilesEPU34objcproto23MTLRenderCommandEncoder11objc_objectjjj,
                            __ZNK3vst5splat12HWRasterizer11_cullSplatsEPU35objcproto24MTLComputeCommandEncoder11objc_object,
                            __ZNK3vst5splat12HWRasterizer11_sortSplatsEPU35objcproto24MTLComputeCommandEncoder11objc_object,
                            __ZNK3vst5splat12HWRasterizer12_clearBufferEPU35objcproto24MTLComputeCommandEncoder11objc_objectPU19objcproto9MTLBuffer11objc_objectj,
                            __ZNK3vst5splat12HWRasterizer12_clearBufferEPU35objcproto24MTLComputeCommandEncoder11objc_objectPU19objcproto9MTLBuffer11objc_objectjjj,
                            __ZNK3vst5splat12HWRasterizer13_clearTextureEPU35objcproto24MTLComputeCommandEncoder11objc_objectPU21objcproto10MTLTexture11objc_objectDv4_f,
                            __ZNK3vst5splat12HWRasterizer13_renderSplatsEPU34objcproto23MTLRenderCommandEncoder11objc_objectj,
                            __ZNK3vst5splat12HWRasterizer16_smoothTileDepthEPU35objcproto24MTLComputeCommandEncoder11objc_objectjjj,
                            __ZNK3vst5splat12HWRasterizer17_postProcessColorEPU35objcproto24MTLComputeCommandEncoder11objc_objectjjj,
                            __ZNK3vst5splat12HWRasterizer18_generateProxyMeshEPU35objcproto24MTLComputeCommandEncoder11objc_objectjjj,
                            __ZNK3vst5splat12HWRasterizer20_convertDepthToColorEPU35objcproto24MTLComputeCommandEncoder11objc_objectjjj,
                            __ZNK3vst5splat12HWRasterizer21_computeBlendingStatsEPU35objcproto24MTLComputeCommandEncoder11objc_objectj,
                            __ZNK3vst5splat12HWRasterizer21_resolveColorAndDepthEPU34objcproto23MTLRenderCommandEncoder11objc_objectjjj,
                            __ZNK3vst5splat12HWRasterizer33_resolveMaxVisibilityContributionEPU35objcproto24MTLComputeCommandEncoder11objc_objectj,
                            __ZNK3vst5splat12HWRasterizer4cullERKNS0_12BaseRenderer8CullInfoE,
                            __ZNK3vst5splat12HWRasterizer4drawERKNS0_12BaseRenderer8DrawInfoE,
                            __ZNK3vst5splat12MeshDataImpl12metalBuffersEv,
                            __ZNK3vst5splat12MeshRenderer4drawERKNS1_8DrawInfoE,
                            __ZNK3vst5splat12SWRasterizer12_clearBufferEPU35objcproto24MTLComputeCommandEncoder11objc_objectPU19objcproto9MTLBuffer11objc_objectj,
                            __ZNK3vst5splat12SWRasterizer13_exclusiveSumEPU35objcproto24MTLComputeCommandEncoder11objc_objectPU19objcproto9MTLBuffer11objc_objectS5_S5_,
                            __ZNK3vst5splat12SWRasterizer13_generateKeysEPU35objcproto24MTLComputeCommandEncoder11objc_objectj,
                            __ZNK3vst5splat12SWRasterizer14_projectSplatsEPU35objcproto24MTLComputeCommandEncoder11objc_objectj,
                            __ZNK3vst5splat12SWRasterizer16_rasterizeSplatsEPU35objcproto24MTLComputeCommandEncoder11objc_objectPU19objcproto9MTLBuffer11objc_objectj,
                            __ZNK3vst5splat12SWRasterizer17_computeKeyRangesEPU35objcproto24MTLComputeCommandEncoder11objc_objectPU19objcproto9MTLBuffer11objc_object,
                            __ZNK3vst5splat12SWRasterizer18_computeKeyOffsetsEPU35objcproto24MTLComputeCommandEncoder11objc_object,
                            __ZNK3vst5splat12SWRasterizer4cullERKNS0_12BaseRenderer8CullInfoE,
                            __ZNK3vst5splat12SWRasterizer4drawERKNS0_12BaseRenderer8DrawInfoE,
                            __ZNK3vst5splat12SWRasterizer9_sortKeysEPU35objcproto24MTLComputeCommandEncoder11objc_object,
                            __ZNK3vst5splat13ProxyRenderer26makeRenderTargetDescriptorERKDv2_tNS0_12BaseRenderer12GridTileSizeE,
                            __ZNK3vst5splat13ProxyRenderer26makeRenderTargetDescriptorERKNS1_26RenderTargetDescriptorInfoE,
                            __ZNK3vst5splat13ProxyRenderer27makeProxyBuffersDescriptorsERKNS1_25ProxyBufferDescriptorInfoE,
                            __ZNK3vst5splat13ProxyRenderer4cullERKNS1_8CullInfoE,
                            __ZNK3vst5splat13ProxyRenderer4drawERKNS1_8DrawInfoE,
                            __ZNK3vst5splat14VolumeDataImpl14makeDumpObjectEv,
                            __ZNK3vst5splat14VolumeDataImpl14makePackedDataENS0_14packing_shared6MethodE,
                            __ZNK3vst5splat14VolumeDataImpl14metalResourcesEv,
                            __ZNK3vst5splat14VolumeDataImpl16makeUnpackedDataEv,
                            __ZNK3vst5splat14VolumeDataImpl21_inferQuiltDescriptorEP9IOSurface,
                            __ZNK3vst5splat14VolumeDataImpl21_inferQuiltDescriptorEP9IOSurfacePKDv2_tS4_,
                            __ZNK3vst5splat14VolumeDataImpl21_inferQuiltDescriptorEm,
                            __ZNK3vst5splat14VolumeDataImpl22makePersonaModelOutputERKNS0_10VolumeData26MakePersonaModelOutputInfoE,
                            __ZNK3vst5splat15LayerCompositor4drawERKNS1_8DrawInfoE,
                            __ZNK3vst5splat15TextureDataImpl12metalTextureEv,
                            __ZNK3vst5splat16MeshRendererImpl11_renderMeshEPU34objcproto23MTLRenderCommandEncoder11objc_objectj,
                            __ZNK3vst5splat16MeshRendererImpl4drawERKNS0_12MeshRenderer8DrawInfoE,
                            __ZNK3vst5splat17ProxyRendererImpl28createRenderTargetDescriptorEDv2_tNS0_12BaseRenderer12GridTileSizeES2_,
                            __ZNK3vst5splat17ProxyRendererImpl28createRenderTargetDescriptorERKNS0_13ProxyRenderer26RenderTargetDescriptorInfoE,
                            __ZNK3vst5splat17ProxyRendererImpl29_createRenderTargetDescriptorERKDv2_tS4_S4_S4_,
                            __ZNK3vst5splat17ProxyRendererImpl29createProxyBuffersDescriptorsEDv3_fS2_RKDv2_ttNS0_12BaseRenderer12GridTileSizeENSt3__14spanIKNS0_37ProxyRendererImplViewProxyBuffersInfoELm18446744073709551615EEENS6_9TechniqueE,
                            __ZNK3vst5splat17ProxyRendererImpl29createProxyBuffersDescriptorsERKNS0_13ProxyRenderer25ProxyBufferDescriptorInfoE,
                            __ZNK3vst5splat17ProxyRendererImpl4cullERKNS0_13ProxyRenderer8CullInfoE,
                            __ZNK3vst5splat17ProxyRendererImpl4drawERKNS0_13ProxyRenderer8DrawInfoE,
                            __ZNK3vst5splat19LayerCompositorImpl14_composeLayersEPU34objcproto23MTLRenderCommandEncoder11objc_objectj,
                            __ZNK3vst5splat19LayerCompositorImpl4drawERKNS0_15LayerCompositor8DrawInfoE,
                            __ZNK3vst5splat23GaussianSplatRasterizer10cullVolumeERKNS0_19PrimitiveRasterizer8CullInfoEj,
                            __ZNK3vst5splat23GaussianSplatRasterizer12preRasterizeERKNS0_19PrimitiveRasterizer13RasterizeInfoE,
                            __ZNK3vst5splat23GaussianSplatRasterizer15rasterizeVolumeERKNS0_19PrimitiveRasterizer13RasterizeInfoEjj,
                            __ZNK3vst5splat23GaussianSplatRasterizer7preCullERKNS0_19PrimitiveRasterizer8CullInfoE,
                            __ZNK3vst5splat23TriangleSplatRasterizer10cullVolumeERKNS0_19PrimitiveRasterizer8CullInfoEj,
                            __ZNK3vst5splat23TriangleSplatRasterizer12preRasterizeERKNS0_19PrimitiveRasterizer13RasterizeInfoE,
                            __ZNK3vst5splat23TriangleSplatRasterizer15rasterizeVolumeERKNS0_19PrimitiveRasterizer13RasterizeInfoEjj,
                            __ZNK3vst5splat23TriangleSplatRasterizer7preCullERKNS0_19PrimitiveRasterizer8CullInfoE,
                            __ZNK3vst5splat8MeshData10numIndicesEv,
                            __ZNK3vst5splat8MeshData11numVerticesEv,
                            __ZNK3vst5splat8MeshData12metalBuffersEv,
                            __ZNK3vst5splat8MeshData3boxEv,
                            __ZNK3vst5splat8MeshData3uvsEv,
                            __ZNK3vst5splat8MeshData7indicesEv,
                            __ZNK3vst5splat8MeshData9positionsEv,
                            __ZTIN3vst4core12MemoryBufferE,
                            __ZTIN3vst5splat12HWRasterizerE,
                            __ZTIN3vst5splat12SWRasterizerE,
                            __ZTIN3vst5splat23GaussianSplatRasterizerE,
                            __ZTIN3vst5splat23TriangleSplatRasterizerE,
                            __ZTSN3vst4core12MemoryBufferE,
                            __ZTSN3vst5splat12HWRasterizerE,
                            __ZTSN3vst5splat12SWRasterizerE,
                            __ZTSN3vst5splat23GaussianSplatRasterizerE,
                            __ZTSN3vst5splat23TriangleSplatRasterizerE,
                            __ZTVN3vst4core12MemoryBufferE,
                            __ZTVN3vst5splat12HWRasterizerE,
                            __ZTVN3vst5splat12SWRasterizerE,
                            __ZTVN3vst5splat23GaussianSplatRasterizerE,
                            __ZTVN3vst5splat23TriangleSplatRasterizerE ]
    objc-classes:         [ VSTBundle, VSTControllerConnection,
                            VSTControllerServer,
                            VSTCoreVertexAttributeBufferDump, VSTProxyRenderer,
                            VSTProxyRendererBoxDump,
                            VSTProxyRendererBufferDescriptor,
                            VSTProxyRendererCommandDump,
                            VSTProxyRendererCreateInfo,
                            VSTProxyRendererCreateOptions,
                            VSTProxyRendererCullInfo,
                            VSTProxyRendererCullingOptions,
                            VSTProxyRendererDescriptorInfo,
                            VSTProxyRendererDrawInfo,
                            VSTProxyRendererDynamicPrimitiveScalingOptions,
                            VSTProxyRendererFrameStats,
                            VSTProxyRendererLayerData, VSTProxyRendererLayerQuad,
                            VSTProxyRendererLayerStack,
                            VSTProxyRendererPrimitiveOptions,
                            VSTProxyRendererProxyBuffers,
                            VSTProxyRendererProxyBuffersDescriptor,
                            VSTProxyRendererProxyData,
                            VSTProxyRendererProxyMeshOptions,
                            VSTProxyRendererRasterizationRateBoxInfo,
                            VSTProxyRendererRasterizationRateBoxInfoDump,
                            VSTProxyRendererRasterizationRateConeInfo,
                            VSTProxyRendererRasterizationRateConeInfoDump,
                            VSTProxyRendererRasterizationRateInfo,
                            VSTProxyRendererRasterizationRateInfoDump,
                            VSTProxyRendererRectangle,
                            VSTProxyRendererRenderTarget,
                            VSTProxyRendererRenderTargetDescriptor,
                            VSTProxyRendererResolutionOptions,
                            VSTProxyRendererTextureBounds,
                            VSTProxyRendererTextureBoundsDump,
                            VSTProxyRendererTextureInfo,
                            VSTProxyRendererUpdateInfo,
                            VSTProxyRendererUpdateState,
                            VSTProxyRendererViewExtent, VSTProxyRendererViewInfo,
                            VSTProxyRendererVisibleSplats,
                            VSTProxyRendererVolumeBounds,
                            VSTProxyRendererVolumeInfo,
                            VSTProxyRendererVolumeProxyBuffers,
                            VSTSplatBaseRendererCullingOptionsDump,
                            VSTSplatBaseRendererDrawOptionsDump,
                            VSTSplatBaseRendererDynamicPrimitiveScalingOptionsDump,
                            VSTSplatProxyRendererCreateInfoDump,
                            VSTSplatProxyRendererCreateOptionsDump,
                            VSTSplatProxyRendererFrameStatsDump,
                            VSTSplatProxyRendererLayerDataDump,
                            VSTSplatProxyRendererLayerQuadDump,
                            VSTSplatProxyRendererLayerStackDump,
                            VSTSplatProxyRendererProxyBuffersDump,
                            VSTSplatProxyRendererProxyDataDump,
                            VSTSplatProxyRendererRenderTargetDump,
                            VSTSplatProxyRendererSplattingOptionsDump,
                            VSTSplatProxyRendererTextureInfoDump,
                            VSTSplatProxyRendererUpdateInfoDump,
                            VSTSplatProxyRendererViewInfoDump,
                            VSTSplatProxyRendererVisibleSplatsDump,
                            VSTSplatProxyRendererVolumeInfoDump,
                            VSTSplatTextureDataDump, VSTSplatVersionDump,
                            VSTSplatVolumeDataDump, VSTTextureData,
                            VSTTextureDataCreateFromIOSurfaceInfo, VSTVolumeData,
                            VSTVolumeDataCreateFromBlobInfo,
                            VSTVolumeDataCreateFromCapacityInfo,
                            VSTVolumeDataCreateFromFloatInfo,
                            VSTVolumeDataCreateFromPersonaModelOutputInfo,
                            VSTVolumeDataCreateFromQuantizedInfo,
                            VSTVolumeDataUpdateFromPersonaModelOutputInfo ]
    objc-ivars:           [ VSTControllerConnection._clientID,
                            VSTControllerConnection._server,
                            VSTControllerServer._server,
                            VSTCoreVertexAttributeBufferDump._elementCount,
                            VSTCoreVertexAttributeBufferDump._iosurface,
                            VSTCoreVertexAttributeBufferDump._vertexFormat,
                            VSTProxyRenderer._controllerConnection,
                            VSTProxyRenderer._createInfo,
                            VSTProxyRenderer._createOverrides,
                            VSTProxyRenderer._proxyRenderer,
                            VSTProxyRenderer._recordingState,
                            VSTProxyRendererBoxDump._max,
                            VSTProxyRendererBoxDump._min,
                            VSTProxyRendererBufferDescriptor._length,
                            VSTProxyRendererBufferDescriptor._resourceOptions,
                            VSTProxyRendererCommandDump._timestamp,
                            VSTProxyRendererCreateInfo._colorMode,
                            VSTProxyRendererCreateInfo._colorPixelFormat,
                            VSTProxyRendererCreateInfo._depthMode,
                            VSTProxyRendererCreateInfo._depthPixelFormat,
                            VSTProxyRendererCreateInfo._depthQuality,
                            VSTProxyRendererCreateInfo._device,
                            VSTProxyRendererCreateInfo._gridDepthPixelFormat,
                            VSTProxyRendererCreateInfo._layout,
                            VSTProxyRendererCreateInfo._maxNumVolumes,
                            VSTProxyRendererCreateInfo._numViews,
                            VSTProxyRendererCreateInfo._options,
                            VSTProxyRendererCreateInfo._primitive,
                            VSTProxyRendererCreateInfo._shOrder,
                            VSTProxyRendererCreateInfo._technique,
                            VSTProxyRendererCreateOptions._createIOSurfaceBackedResources,
                            VSTProxyRendererCreateOptions._dumpPath,
                            VSTProxyRendererCreateOptions._generateProxyMesh,
                            VSTProxyRendererCreateOptions._maxNumDumpedFrames,
                            VSTProxyRendererCreateOptions._numBatches,
                            VSTProxyRendererCreateOptions._packingMethod,
                            VSTProxyRendererCreateOptions._recordMaxVisibilityContribution,
                            VSTProxyRendererCreateOptions._reduceTileRenderingRegion,
                            VSTProxyRendererCreateOptions._renderBack,
                            VSTProxyRendererCreateOptions._useEarlyZTesting,
                            VSTProxyRendererCreateOptions._useOverdrawLimit,
                            VSTProxyRendererCreateOptions._useVertexAmplification,
                            VSTProxyRendererCullInfo._commandBuffer,
                            VSTProxyRendererCullInfo._updateState,
                            VSTProxyRendererCullingOptions._useBoundingBoxCulling,
                            VSTProxyRendererCullingOptions._useNormalCulling,
                            VSTProxyRendererCullingOptions._usePreciseFrustumCulling,
                            VSTProxyRendererDescriptorInfo._proxyMeshOptions,
                            VSTProxyRendererDescriptorInfo._resolutionOptions,
                            VSTProxyRendererDescriptorInfo._views,
                            VSTProxyRendererDescriptorInfo._volumeBounds,
                            VSTProxyRendererDrawInfo._commandBuffer,
                            VSTProxyRendererDrawInfo._updateState,
                            VSTProxyRendererDynamicPrimitiveScalingOptions._falloffEndAngle,
                            VSTProxyRendererDynamicPrimitiveScalingOptions._falloffScale,
                            VSTProxyRendererDynamicPrimitiveScalingOptions._falloffStartAngle,
                            VSTProxyRendererDynamicPrimitiveScalingOptions._gazeDirection,
                            VSTProxyRendererDynamicPrimitiveScalingOptions._gazeOrigin,
                            VSTProxyRendererFrameStats._numActiveGaussianSplats,
                            VSTProxyRendererFrameStats._numVisibleSplats,
                            VSTProxyRendererLayerData._proxies,
                            VSTProxyRendererLayerData._stats,
                            VSTProxyRendererLayerData._updateState,
                            VSTProxyRendererLayerQuad._down,
                            VSTProxyRendererLayerQuad._layerToWorld,
                            VSTProxyRendererLayerQuad._origin,
                            VSTProxyRendererLayerQuad._right,
                            VSTProxyRendererLayerStack._colorTextureInfo,
                            VSTProxyRendererLayerStack._depthTextureInfo,
                            VSTProxyRendererLayerStack._gridDepthTextureInfo,
                            VSTProxyRendererLayerStack._proxyBuffers,
                            VSTProxyRendererLayerStack._proxyRenderTargetOrigin,
                            VSTProxyRendererLayerStack._proxyRenderTargetSize,
                            VSTProxyRendererLayerStack._quad,
                            VSTProxyRendererLayerStack._rasterizationRateMapSliceIndex,
                            VSTProxyRendererLayerStack._renderTarget,
                            VSTProxyRendererLayerStack._renderTargetSliceIndex,
                            VSTProxyRendererLayerStack._uvScale,
                            VSTProxyRendererLayerStack._viewportShift,
                            VSTProxyRendererLayerStack._viewportSize,
                            VSTProxyRendererPrimitiveOptions._depthSortingMode,
                            VSTProxyRendererPrimitiveOptions._filter,
                            VSTProxyRendererPrimitiveOptions._filterSize,
                            VSTProxyRendererPrimitiveOptions._minimumOpacity,
                            VSTProxyRendererPrimitiveOptions._overdrawLimit,
                            VSTProxyRendererPrimitiveOptions._polygonSizeX,
                            VSTProxyRendererPrimitiveOptions._primitiveScale,
                            VSTProxyRendererPrimitiveOptions._splatColorCorrection,
                            VSTProxyRendererPrimitiveOptions._triangleOffset,
                            VSTProxyRendererProxyBuffers._proxyPositionsBuffer,
                            VSTProxyRendererProxyBuffers._proxyUVsBuffer,
                            VSTProxyRendererProxyBuffersDescriptor._positions,
                            VSTProxyRendererProxyBuffersDescriptor._uvs,
                            VSTProxyRendererProxyData._stackViews,
                            VSTProxyRendererProxyData._visibleSplats,
                            VSTProxyRendererProxyMeshOptions._proxyDensityScale,
                            VSTProxyRendererRasterizationRateBoxInfo._boxMax,
                            VSTProxyRendererRasterizationRateBoxInfo._boxMin,
                            VSTProxyRendererRasterizationRateBoxInfo._rasterizationRate,
                            VSTProxyRendererRasterizationRateBoxInfoDump._boxMax,
                            VSTProxyRendererRasterizationRateBoxInfoDump._boxMin,
                            VSTProxyRendererRasterizationRateBoxInfoDump._rasterizationRate,
                            VSTProxyRendererRasterizationRateConeInfo._angle,
                            VSTProxyRendererRasterizationRateConeInfo._direction,
                            VSTProxyRendererRasterizationRateConeInfo._origin,
                            VSTProxyRendererRasterizationRateConeInfo._rasterizationRate,
                            VSTProxyRendererRasterizationRateConeInfoDump._angle,
                            VSTProxyRendererRasterizationRateConeInfoDump._direction,
                            VSTProxyRendererRasterizationRateConeInfoDump._origin,
                            VSTProxyRendererRasterizationRateConeInfoDump._rasterizationRate,
                            VSTProxyRendererRasterizationRateInfo._boxes,
                            VSTProxyRendererRasterizationRateInfo._cones,
                            VSTProxyRendererRasterizationRateInfo._defaultRasterizationRate,
                            VSTProxyRendererRasterizationRateInfo._useOriginalMap,
                            VSTProxyRendererRasterizationRateInfoDump._boxes,
                            VSTProxyRendererRasterizationRateInfoDump._cones,
                            VSTProxyRendererRasterizationRateInfoDump._defaultRasterizationRate,
                            VSTProxyRendererRasterizationRateInfoDump._useOriginalMap,
                            VSTProxyRendererRectangle._max,
                            VSTProxyRendererRectangle._min,
                            VSTProxyRendererRenderTarget._colorTexture,
                            VSTProxyRendererRenderTarget._depthTexture,
                            VSTProxyRendererRenderTarget._gridDepthTexture,
                            VSTProxyRendererRenderTarget._rasterizationRateMap,
                            VSTProxyRendererRenderTargetDescriptor._colorTextureDescriptor,
                            VSTProxyRendererRenderTargetDescriptor._depthTextureDescriptor,
                            VSTProxyRendererRenderTargetDescriptor._gridDepthTextureDescriptor,
                            VSTProxyRendererRenderTargetDescriptor._rasterizationRateMapDescriptor,
                            VSTProxyRendererResolutionOptions._fovPixelsPerDegree,
                            VSTProxyRendererResolutionOptions._gridTileSize,
                            VSTProxyRendererResolutionOptions._maxViewportSize,
                            VSTProxyRendererResolutionOptions._minViewportSize,
                            VSTProxyRendererResolutionOptions._useTightlyFittingRenderTargets,
                            VSTProxyRendererTextureBounds._viewSpaceBounds,
                            VSTProxyRendererTextureBoundsDump._viewSpaceBounds,
                            VSTProxyRendererTextureInfo._origin,
                            VSTProxyRendererTextureInfo._textureSize,
                            VSTProxyRendererTextureInfo._uvScale,
                            VSTProxyRendererUpdateInfo._cullingOptions,
                            VSTProxyRendererUpdateInfo._drawOptions,
                            VSTProxyRendererUpdateInfo._dumpFrame,
                            VSTProxyRendererUpdateInfo._dynamicPrimitiveScalingOptions,
                            VSTProxyRendererUpdateInfo._primitiveOptions,
                            VSTProxyRendererUpdateInfo._rasterizationRateInfo,
                            VSTProxyRendererUpdateInfo._renderTargets,
                            VSTProxyRendererUpdateInfo._resolutionOptions,
                            VSTProxyRendererUpdateInfo._views,
                            VSTProxyRendererUpdateInfo._volumesInfo,
                            VSTProxyRendererUpdateInfo._volumesProxyBuffers,
                            VSTProxyRendererUpdateState._cullDuringDraw,
                            VSTProxyRendererUpdateState._updateStateInternal,
                            VSTProxyRendererViewExtent._projection,
                            VSTProxyRendererViewInfo._projection,
                            VSTProxyRendererViewInfo._viewToWorld,
                            VSTProxyRendererVisibleSplats._maxVisibilityContributionBuffer,
                            VSTProxyRendererVisibleSplats._visibleSplatIndicesBuffer,
                            VSTProxyRendererVolumeBounds._boxMax,
                            VSTProxyRendererVolumeBounds._boxMin,
                            VSTProxyRendererVolumeBounds._customColorTextureBounds,
                            VSTProxyRendererVolumeBounds._customDepthTextureBounds,
                            VSTProxyRendererVolumeBounds._customGridDepthTextureBounds,
                            VSTProxyRendererVolumeBounds._volumeToWorld,
                            VSTProxyRendererVolumeInfo._customColorTextureBounds,
                            VSTProxyRendererVolumeInfo._customDepthTextureBounds,
                            VSTProxyRendererVolumeInfo._customGridDepthTextureBounds,
                            VSTProxyRendererVolumeInfo._volumeData,
                            VSTProxyRendererVolumeInfo._volumeToWorld,
                            VSTProxyRendererVolumeProxyBuffers._viewsProxyBuffers,
                            VSTSplatBaseRendererCullingOptionsDump._useBoundingBoxCulling,
                            VSTSplatBaseRendererCullingOptionsDump._useNormalCulling,
                            VSTSplatBaseRendererCullingOptionsDump._usePreciseFrustumCulling,
                            VSTSplatBaseRendererDrawOptionsDump._debugMode,
                            VSTSplatBaseRendererDrawOptionsDump._depthSortingMode,
                            VSTSplatBaseRendererDrawOptionsDump._dynamicPrimitiveScalingOptions,
                            VSTSplatBaseRendererDrawOptionsDump._filter,
                            VSTSplatBaseRendererDrawOptionsDump._filterSize,
                            VSTSplatBaseRendererDrawOptionsDump._minOpacity,
                            VSTSplatBaseRendererDrawOptionsDump._overdrawLimit,
                            VSTSplatBaseRendererDrawOptionsDump._polySizeX,
                            VSTSplatBaseRendererDrawOptionsDump._primitiveScale,
                            VSTSplatBaseRendererDrawOptionsDump._splatColorCorrection,
                            VSTSplatBaseRendererDrawOptionsDump._splatScale,
                            VSTSplatBaseRendererDrawOptionsDump._stopAfterStage,
                            VSTSplatBaseRendererDrawOptionsDump._triangleSizeOffset,
                            VSTSplatBaseRendererDrawOptionsDump._useTightlyFittingRenderTargets,
                            VSTSplatBaseRendererDynamicPrimitiveScalingOptionsDump._falloffEndAngle,
                            VSTSplatBaseRendererDynamicPrimitiveScalingOptionsDump._falloffScale,
                            VSTSplatBaseRendererDynamicPrimitiveScalingOptionsDump._falloffStartAngle,
                            VSTSplatBaseRendererDynamicPrimitiveScalingOptionsDump._gazeDirection,
                            VSTSplatBaseRendererDynamicPrimitiveScalingOptionsDump._gazeOrigin,
                            VSTSplatProxyRendererCreateInfoDump._colorMode,
                            VSTSplatProxyRendererCreateInfoDump._colorPixelFormat,
                            VSTSplatProxyRendererCreateInfoDump._depthMode,
                            VSTSplatProxyRendererCreateInfoDump._depthPixelFormat,
                            VSTSplatProxyRendererCreateInfoDump._depthQuality,
                            VSTSplatProxyRendererCreateInfoDump._gridDepthPixelFormat,
                            VSTSplatProxyRendererCreateInfoDump._layout,
                            VSTSplatProxyRendererCreateInfoDump._maxNumVolumes,
                            VSTSplatProxyRendererCreateInfoDump._numViews,
                            VSTSplatProxyRendererCreateInfoDump._options,
                            VSTSplatProxyRendererCreateInfoDump._primitive,
                            VSTSplatProxyRendererCreateInfoDump._shOrder,
                            VSTSplatProxyRendererCreateInfoDump._technique,
                            VSTSplatProxyRendererCreateOptionsDump._createIOSurfaceBackedResources,
                            VSTSplatProxyRendererCreateOptionsDump._generateProxyMesh,
                            VSTSplatProxyRendererCreateOptionsDump._numBatches,
                            VSTSplatProxyRendererCreateOptionsDump._packingMethod,
                            VSTSplatProxyRendererCreateOptionsDump._recordMaxVisibilityContribution,
                            VSTSplatProxyRendererCreateOptionsDump._reduceTileRenderingRegion,
                            VSTSplatProxyRendererCreateOptionsDump._renderBack,
                            VSTSplatProxyRendererCreateOptionsDump._useEarlyZTesting,
                            VSTSplatProxyRendererCreateOptionsDump._useOverdrawLimit,
                            VSTSplatProxyRendererCreateOptionsDump._useVertexAmplification,
                            VSTSplatProxyRendererFrameStatsDump._numActiveGaussianSplats,
                            VSTSplatProxyRendererFrameStatsDump._numVisibleSplats,
                            VSTSplatProxyRendererLayerDataDump._proxies,
                            VSTSplatProxyRendererLayerDataDump._stats,
                            VSTSplatProxyRendererLayerQuadDump._down,
                            VSTSplatProxyRendererLayerQuadDump._layerToWorld,
                            VSTSplatProxyRendererLayerQuadDump._origin,
                            VSTSplatProxyRendererLayerQuadDump._right,
                            VSTSplatProxyRendererLayerStackDump._colorTextureInfo,
                            VSTSplatProxyRendererLayerStackDump._depthTextureInfo,
                            VSTSplatProxyRendererLayerStackDump._gridDepthTextureInfo,
                            VSTSplatProxyRendererLayerStackDump._proxyBuffers,
                            VSTSplatProxyRendererLayerStackDump._proxyRenderTargetOrigin,
                            VSTSplatProxyRendererLayerStackDump._proxyRenderTargetSize,
                            VSTSplatProxyRendererLayerStackDump._quad,
                            VSTSplatProxyRendererLayerStackDump._rasterizationRateMapSliceIndex,
                            VSTSplatProxyRendererLayerStackDump._renderTarget,
                            VSTSplatProxyRendererLayerStackDump._renderTargetSliceIndex,
                            VSTSplatProxyRendererLayerStackDump._uvScale,
                            VSTSplatProxyRendererLayerStackDump._viewportShift,
                            VSTSplatProxyRendererLayerStackDump._viewportSize,
                            VSTSplatProxyRendererProxyBuffersDump._proxyPositionsBuffer,
                            VSTSplatProxyRendererProxyBuffersDump._proxyUVsBuffer,
                            VSTSplatProxyRendererProxyDataDump._stackViews,
                            VSTSplatProxyRendererProxyDataDump._visibleSplats,
                            VSTSplatProxyRendererRenderTargetDump._colorTexture,
                            VSTSplatProxyRendererRenderTargetDump._gridDepthTexture,
                            VSTSplatProxyRendererSplattingOptionsDump._fovPixelsPerDegree,
                            VSTSplatProxyRendererSplattingOptionsDump._gridTileSize,
                            VSTSplatProxyRendererSplattingOptionsDump._maxViewportSize,
                            VSTSplatProxyRendererSplattingOptionsDump._minViewportSize,
                            VSTSplatProxyRendererTextureInfoDump._origin,
                            VSTSplatProxyRendererTextureInfoDump._textureSize,
                            VSTSplatProxyRendererUpdateInfoDump._cullingOptions,
                            VSTSplatProxyRendererUpdateInfoDump._drawOptions,
                            VSTSplatProxyRendererUpdateInfoDump._rasterizationRateInfo,
                            VSTSplatProxyRendererUpdateInfoDump._splattingOptions,
                            VSTSplatProxyRendererUpdateInfoDump._views,
                            VSTSplatProxyRendererUpdateInfoDump._volumesInfo,
                            VSTSplatProxyRendererViewInfoDump._projection,
                            VSTSplatProxyRendererViewInfoDump._viewToWorld,
                            VSTSplatProxyRendererVisibleSplatsDump._maxVisibilityContributionBuffer,
                            VSTSplatProxyRendererVisibleSplatsDump._visibleSplatIndicesBuffer,
                            VSTSplatProxyRendererVolumeInfoDump._customColorTextureBounds,
                            VSTSplatProxyRendererVolumeInfoDump._customDepthTextureBounds,
                            VSTSplatProxyRendererVolumeInfoDump._customGridDepthTextureBounds,
                            VSTSplatProxyRendererVolumeInfoDump._volumeData,
                            VSTSplatProxyRendererVolumeInfoDump._volumeDataPtr,
                            VSTSplatProxyRendererVolumeInfoDump._volumeToWorld,
                            VSTSplatTextureDataDump._surface,
                            VSTSplatVersionDump._version,
                            VSTSplatVolumeDataDump._boxMax,
                            VSTSplatVolumeDataDump._boxMin,
                            VSTSplatVolumeDataDump._buffers,
                            VSTSplatVolumeDataDump._format,
                            VSTTextureData._textureData,
                            VSTTextureDataCreateFromIOSurfaceInfo._surface,
                            VSTVolumeData._volumeData,
                            VSTVolumeDataCreateFromBlobInfo._fileType,
                            VSTVolumeDataCreateFromBlobInfo._rawData,
                            VSTVolumeDataCreateFromCapacityInfo._boxMax,
                            VSTVolumeDataCreateFromCapacityInfo._boxMin,
                            VSTVolumeDataCreateFromCapacityInfo._numSplats,
                            VSTVolumeDataCreateFromCapacityInfo._packingMethod,
                            VSTVolumeDataCreateFromCapacityInfo._provideNormals,
                            VSTVolumeDataCreateFromCapacityInfo._shOrder,
                            VSTVolumeDataCreateFromFloatInfo._numSplats,
                            VSTVolumeDataCreateFromFloatInfo._packingMethod,
                            VSTVolumeDataCreateFromFloatInfo._shOrder,
                            VSTVolumeDataCreateFromFloatInfo._splatColors,
                            VSTVolumeDataCreateFromFloatInfo._splatNormals,
                            VSTVolumeDataCreateFromFloatInfo._splatPositions,
                            VSTVolumeDataCreateFromFloatInfo._splatRotations,
                            VSTVolumeDataCreateFromFloatInfo._splatSHs,
                            VSTVolumeDataCreateFromFloatInfo._splatScales,
                            VSTVolumeDataCreateFromPersonaModelOutputInfo._activeSplatIndices,
                            VSTVolumeDataCreateFromPersonaModelOutputInfo._numActiveSplats,
                            VSTVolumeDataCreateFromPersonaModelOutputInfo._packingMethod,
                            VSTVolumeDataCreateFromPersonaModelOutputInfo._quiltSize,
                            VSTVolumeDataCreateFromPersonaModelOutputInfo._quiltSplatAttributeCoords,
                            VSTVolumeDataCreateFromPersonaModelOutputInfo._splatNormals,
                            VSTVolumeDataCreateFromPersonaModelOutputInfo._splatsSurface,
                            VSTVolumeDataCreateFromQuantizedInfo._boxMax,
                            VSTVolumeDataCreateFromQuantizedInfo._boxMin,
                            VSTVolumeDataCreateFromQuantizedInfo._numSplats,
                            VSTVolumeDataCreateFromQuantizedInfo._shOrder,
                            VSTVolumeDataCreateFromQuantizedInfo._splatColors,
                            VSTVolumeDataCreateFromQuantizedInfo._splatNormals,
                            VSTVolumeDataCreateFromQuantizedInfo._splatPositions,
                            VSTVolumeDataCreateFromQuantizedInfo._splatRotations,
                            VSTVolumeDataCreateFromQuantizedInfo._splatSHs,
                            VSTVolumeDataCreateFromQuantizedInfo._splatScales,
                            VSTVolumeDataUpdateFromPersonaModelOutputInfo._activeSplatIndices,
                            VSTVolumeDataUpdateFromPersonaModelOutputInfo._commandBuffer,
                            VSTVolumeDataUpdateFromPersonaModelOutputInfo._numActiveSplats,
                            VSTVolumeDataUpdateFromPersonaModelOutputInfo._quiltSize,
                            VSTVolumeDataUpdateFromPersonaModelOutputInfo._quiltSplatAttributeCoords,
                            VSTVolumeDataUpdateFromPersonaModelOutputInfo._splatsSurface,
                            VSTVolumeDataUpdateFromPersonaModelOutputInfo._visibilitySphere ]
    weak-def-symbols:     [ __ZN3vst4core16SharedRingBufferINS_5splat29ProxyRendererImplRenderTargetEE19kDefaultConstructorMUlvE_8__invokeEv,
                            __ZN3vst4core16SharedRingBufferINS_5splat30ProxyRendererImplVisibleSplatsEE19kDefaultConstructorMUlvE_8__invokeEv,
                            __ZN3vst4core16SharedRingBufferINS_5splat35ProxyRendererImplVolumeProxyBuffersEE19kDefaultConstructorMUlvE_8__invokeEv,
                            __ZN3vst4core8LRUCacheINSt3__14pairIU6__weakPU21objcproto10MTLTexture11objc_objectS6_EENS3_IDv2_fS8_EEE10kEndOfListE,
                            __ZN3vst4core8LRUCacheINSt3__14pairIU6__weakPU21objcproto10MTLTexture11objc_objectS6_EENS3_IDv2_fS8_EEE14clearFromIndexEj,
                            __ZN3vst4core8LRUCacheINSt3__14pairIU6__weakPU21objcproto10MTLTexture11objc_objectS6_EENS3_IDv2_fS8_EEE17clearStaleEntriesEy,
                            __ZN3vst4core8LRUCacheINSt3__14pairIU6__weakPU21objcproto10MTLTexture11objc_objectS6_EENS3_IDv2_fS8_EEE4findERKS7_,
                            __ZN3vst4core8LRUCacheINSt3__14pairIU6__weakPU21objcproto10MTLTexture11objc_objectS6_EENS3_IDv2_fS8_EEE5clearEv,
                            __ZN3vst4core8LRUCacheINSt3__14pairIU6__weakPU21objcproto10MTLTexture11objc_objectS6_EENS3_IDv2_fS8_EEE6insertERKS7_RKS9_,
                            __ZN3vst4core8LRUCacheINSt3__14pairIU6__weakPU21objcproto10MTLTexture11objc_objectS6_EENS3_IDv2_fS8_EEEC1Em,
                            __ZN3vst4core8LRUCacheINSt3__14pairIU6__weakPU21objcproto10MTLTexture11objc_objectS6_EENS3_IDv2_fS8_EEEC2Em,
                            __ZN3vst4core8LRUCacheIU6__weakPU21objcproto10MTLTexture11objc_objectU8__strongS3_E10kEndOfListE,
                            __ZN3vst4core8LRUCacheIU6__weakPU21objcproto10MTLTexture11objc_objectU8__strongS3_E14clearFromIndexEj,
                            __ZN3vst4core8LRUCacheIU6__weakPU21objcproto10MTLTexture11objc_objectU8__strongS3_E17clearStaleEntriesEy,
                            __ZN3vst4core8LRUCacheIU6__weakPU21objcproto10MTLTexture11objc_objectU8__strongS3_E4findERU6__weakKS3_,
                            __ZN3vst4core8LRUCacheIU6__weakPU21objcproto10MTLTexture11objc_objectU8__strongS3_E5clearEv,
                            __ZN3vst4core8LRUCacheIU6__weakPU21objcproto10MTLTexture11objc_objectU8__strongS3_E6insertERU6__weakKS3_RU8__strongKS3_,
                            __ZN3vst4core8LRUCacheIU6__weakPU21objcproto10MTLTexture11objc_objectU8__strongS3_EC1Em,
                            __ZN3vst4core8LRUCacheIU6__weakPU21objcproto10MTLTexture11objc_objectU8__strongS3_EC2Em,
                            __ZN3vst4core8LRUCacheIU8__strongP9IOSurfaceU8__strongPU19objcproto9MTLBuffer11objc_objectE10kEndOfListE,
                            __ZN3vst4core8LRUCacheIU8__strongP9IOSurfaceU8__strongPU19objcproto9MTLBuffer11objc_objectE14clearFromIndexEj,
                            __ZN3vst4core8LRUCacheIU8__strongP9IOSurfaceU8__strongPU19objcproto9MTLBuffer11objc_objectE17clearStaleEntriesEy,
                            __ZN3vst4core8LRUCacheIU8__strongP9IOSurfaceU8__strongPU19objcproto9MTLBuffer11objc_objectE4findERU8__strongKS3_,
                            __ZN3vst4core8LRUCacheIU8__strongP9IOSurfaceU8__strongPU19objcproto9MTLBuffer11objc_objectE5clearEv,
                            __ZN3vst4core8LRUCacheIU8__strongP9IOSurfaceU8__strongPU19objcproto9MTLBuffer11objc_objectE6insertERU8__strongKS3_RU8__strongKS6_,
                            __ZN3vst4core8LRUCacheIU8__strongP9IOSurfaceU8__strongPU19objcproto9MTLBuffer11objc_objectEC1Em,
                            __ZN3vst4core8LRUCacheIU8__strongP9IOSurfaceU8__strongPU19objcproto9MTLBuffer11objc_objectEC2Em,
                            __ZN3vst4core8LRUCacheIjjE10kEndOfListE,
                            __ZN3vst4core8LRUCacheIjjE14clearFromIndexEj,
                            __ZN3vst4core8LRUCacheIjjE17clearStaleEntriesEy,
                            __ZN3vst4core8LRUCacheIjjE4findERKj,
                            __ZN3vst4core8LRUCacheIjjE5clearEv,
                            __ZN3vst4core8LRUCacheIjjE6insertERKjS4_,
                            __ZN3vst4core8LRUCacheIjjEC1Em,
                            __ZN3vst4core8LRUCacheIjjEC2Em,
                            __ZN3vst5splat10VolumeData44kPersonaCompressionQuiltSplatAttributeCoordsE,
                            __ZN3vst5splat10VolumeData44kPersonaModelOutputQuiltSplatAttributeCoordsE,
                            __ZN3vst5splat12HWRasterizer17kAllPipelineFlagsE,
                            __ZN3vst5splat23GaussianSplatRasterizer17kAllPipelineFlagsE,
                            __ZN3vst5splat23TriangleSplatRasterizer17kAllPipelineFlagsE,
                            __ZZN3vst5splat24getAspenVertexPropertiesENSt3__14spanIKNS_4core3ply7ElementELm18446744073709551615EEEE28kSupportedColorSpaceProperty ]
...
