--- !tapi-tbd-v3
archs:                 [ armv7, armv7s, arm64, arm64e ]
platform:              ios
flags:                 [ flat_namespace ]
install-name:          /System/Library/PrivateFrameworks/ACICoreKit.framework/ACICoreKit
current-version:       1
compatibility-version: 1
exports:
  - archs:                [ armv7, armv7s, arm64, arm64e ]
    symbols:              [ _ACICoreKitVersionNumber, _ACICoreKitVersionString,
                            __ZN3aci10Controller10deactivateEv,
                            __ZN3aci10Controller13classTypeInfoEv,
                            __ZN3aci10Controller13stopWithBlockEU13block_pointerF12ACIErrorCodevE,
                            __ZN3aci10Controller14startWithBlockEU13block_pointerF12ACIErrorCodevE,
                            __ZN3aci10Controller16prepareWithBlockEU13block_pointerF12ACIErrorCodevE,
                            __ZN3aci10Controller17activateWithBlockEU13block_pointerF12ACIErrorCodevE,
                            __ZN3aci10Controller18unprepareWithBlockEU13block_pointerF12ACIErrorCodevE,
                            __ZN3aci10Controller19deactivateWithBlockEU13block_pointerF12ACIErrorCodevE,
                            __ZN3aci10Controller4stopEv,
                            __ZN3aci10Controller5startEv,
                            __ZN3aci10Controller7prepareEv,
                            __ZN3aci10Controller8activateEv,
                            __ZN3aci10Controller9unprepareEv,
                            __ZN3aci10Dictionary12removeObjectEPKNS_6ObjectE,
                            __ZN3aci10Dictionary12removeObjectEPKc,
                            __ZN3aci10Dictionary13classTypeInfoEv,
                            __ZN3aci10Dictionary16removeAllObjectsEv,
                            __ZN3aci10Dictionary5allocEv,
                            __ZN3aci10Dictionary7allKeysEv,
                            __ZN3aci10Dictionary9allValuesEv,
                            __ZN3aci10Dictionary9setObjectEPNS_6ObjectES2_,
                            __ZN3aci10DictionaryC1ESt16initializer_listINSt3__14pairIPNS_6ObjectES5_EEE,
                            __ZN3aci10DictionaryC1Ev,
                            __ZN3aci10DictionaryC2ESt16initializer_listINSt3__14pairIPNS_6ObjectES5_EEE,
                            __ZN3aci10DictionaryC2Ev,
                            __ZN3aci10StreamSpec11addSinkSpecEPNS_13ComponentSpecE,
                            __ZN3aci10StreamSpec13addFilterSpecEPNS_13ComponentSpecE,
                            __ZN3aci10StreamSpec13addSourceSpecEPNS_13ComponentSpecE,
                            __ZN3aci10StreamSpec13classTypeInfoEv,
                            __ZN3aci10StreamSpecC1EPNS_10DictionaryE,
                            __ZN3aci10StreamSpecC2EPNS_10DictionaryE,
                            __ZN3aci11fourccToStrEjPcm,
                            __ZN3aci13ComponentSpec13classTypeInfoEv,
                            __ZN3aci13SourceManager13classTypeInfoEv,
                            __ZN3aci13SourceManagerC2Ev,
                            __ZN3aci14ComponentGraph10addFiltersESt16initializer_listIPNS_9ComponentEE,
                            __ZN3aci14ComponentGraph10addSourcesESt16initializer_listIPNS_9ComponentEE,
                            __ZN3aci14ComponentGraph10deactivateEv,
                            __ZN3aci14ComponentGraph10disconnectEPNS_9ComponentENS_4Port8CategoryES2_S4_,
                            __ZN3aci14ComponentGraph13classTypeInfoEv,
                            __ZN3aci14ComponentGraph13connectionKeyEPNS_9ComponentENS_4Port8CategoryES2_S4_,
                            __ZN3aci14ComponentGraph4stopEv,
                            __ZN3aci14ComponentGraph5startEv,
                            __ZN3aci14ComponentGraph7connectEPNS_9ComponentENS_4Port8CategoryES2_S4_,
                            __ZN3aci14ComponentGraph7getSinkEy,
                            __ZN3aci14ComponentGraph7prepareEv,
                            __ZN3aci14ComponentGraph8activateEv,
                            __ZN3aci14ComponentGraph8addSinksESt16initializer_listIPNS_9ComponentEE,
                            __ZN3aci14ComponentGraph9getFilterEy,
                            __ZN3aci14ComponentGraph9getSourceEy,
                            __ZN3aci14ComponentGraph9unprepareEv,
                            __ZN3aci14ComponentGraphC1Ev,
                            __ZN3aci14ComponentGraphC2Ev,
                            __ZN3aci15ActivityManager11addActivityEPNS_8ActivityE,
                            __ZN3aci15ActivityManager14removeActivityEPNS_8ActivityE,
                            __ZN3aci17SinkAgentProtocol13classTypeInfoEv,
                            __ZN3aci22StreamListenerProtocol13classTypeInfoEv,
                            __ZN3aci23ServiceReceiverProtocol13classTypeInfoEv,
                            __ZN3aci3Env13classTypeInfoEv,
                            __ZN3aci4Data10relinquishEv,
                            __ZN3aci4Data13classTypeInfoEv,
                            __ZN3aci4Data5clearEv, __ZN3aci4Data6isFreeEv,
                            __ZN3aci4Data7reserveEv,
                            __ZN3aci4Port13classTypeInfoEv,
                            __ZN3aci4Port5writeEPNS_4DataE,
                            __ZN3aci4PortC1EPNS_9ComponentENS0_8CategoryES2_S3_,
                            __ZN3aci4PortC2EPNS_9ComponentENS0_8CategoryES2_S3_,
                            __ZN3aci4Sink13classTypeInfoEv,
                            __ZN3aci4Sink17registerSinkAgentEPNS_17SinkAgentProtocolE,
                            __ZN3aci4Sink19unregisterSinkAgentEPNS_17SinkAgentProtocolE,
                            __ZN3aci4Sink7processEPNS_4DataEi,
                            __ZN3aci4SinkC1EPNS_10DictionaryE,
                            __ZN3aci4SinkC2EPNS_10DictionaryE,
                            __ZN3aci4Spec13classTypeInfoEv,
                            __ZN3aci5Array12removeObjectEPNS_6ObjectE,
                            __ZN3aci5Array13classTypeInfoEv,
                            __ZN3aci5Array16removeAllObjectsEv,
                            __ZN3aci5Array16removeLastObjectEv,
                            __ZN3aci5Array19removeObjectAtIndexEy,
                            __ZN3aci5Array5allocEv,
                            __ZN3aci5Array9addObjectEPNS_6ObjectE,
                            __ZN3aci5ArrayC1ESt16initializer_listIPNS_6ObjectEE,
                            __ZN3aci5ArrayC2ESt16initializer_listIPNS_6ObjectEE,
                            __ZN3aci5ArrayD0Ev, __ZN3aci5ArrayD1Ev,
                            __ZN3aci5ArrayD2Ev, __ZN3aci6Device13classTypeInfoEv,
                            __ZN3aci6Number13classTypeInfoEv,
                            __ZN3aci6Object13classTypeInfoEv,
                            __ZN3aci6Object4freeEv,
                            __ZN3aci6ObjectC1EPNS_10DictionaryE,
                            __ZN3aci6ObjectC2EPNS_10DictionaryE,
                            __ZN3aci6Stream10deactivateEv,
                            __ZN3aci6Stream10disconnectEPNS_9ComponentENS_4Port8CategoryES2_S4_,
                            __ZN3aci6Stream13classTypeInfoEv,
                            __ZN3aci6Stream22registerStreamListenerEPNS_22StreamListenerProtocolE,
                            __ZN3aci6Stream24unregisterStreamListenerEPNS_22StreamListenerProtocolE,
                            __ZN3aci6Stream4stopEv, __ZN3aci6Stream5startEv,
                            __ZN3aci6Stream7connectEPNS_9ComponentENS_4Port8CategoryES2_S4_,
                            __ZN3aci6Stream7prepareEv,
                            __ZN3aci6Stream8activateEv,
                            __ZN3aci6Stream9onNewDataEPNS_4DataEPNS_6StringE,
                            __ZN3aci6Stream9unprepareEv,
                            __ZN3aci6StreamC1EPNS_6StringESt16initializer_listIPNS_9ComponentEES6_S6_,
                            __ZN3aci6StreamC2EPNS_6StringESt16initializer_listIPNS_9ComponentEES6_S6_,
                            __ZN3aci6String13classTypeInfoEv,
                            __ZN3aci6String17stringWithCStringEPKc,
                            __ZN3aci6String23stringWithCStringNoCopyEPKc,
                            __ZN3aci7Factory10deallocateEv,
                            __ZN3aci7Factory11acquireDataEv,
                            __ZN3aci7Factory11releaseDataEPNS_4DataE,
                            __ZN3aci7Factory13classTypeInfoEv,
                            __ZN3aci7Factory3popEv,
                            __ZN3aci7Factory4pushENS_2SPINS_4DataEXadL_Z11ACISPRetainIS2_EvRT_EEXadL_Z12ACISPReleaseIS2_EvS5_EEEE,
                            __ZN3aci7Factory8allocateEv,
                            __ZN3aci7Factory8freeDataEPNS_4DataE,
                            __ZN3aci7Factory9allocDataEv, __ZN3aci7FactoryC1Ej,
                            __ZN3aci7FactoryC2Ej,
                            __ZN3aci7Manager13classTypeInfoEv,
                            __ZN3aci7Service10deactivateEv,
                            __ZN3aci7Service11unsubscribeEPNS_6StringE,
                            __ZN3aci7Service13classTypeInfoEv,
                            __ZN3aci7Service4stopEv, __ZN3aci7Service5startEv,
                            __ZN3aci7Service7prepareEv,
                            __ZN3aci7Service8activateEv,
                            __ZN3aci7Service9onNewDataEPNS_4DataEPNS_6StringE,
                            __ZN3aci7Service9subscribeEPNS_6StringEPNS_23ServiceReceiverProtocolE,
                            __ZN3aci7Service9unprepareEv,
                            __ZN3aci7ServiceC1EPNS_6StreamE,
                            __ZN3aci7ServiceC2EPNS_6StreamE,
                            __ZN3aci8Activity10initializeEv,
                            __ZN3aci8Activity11attachChildEPS0_,
                            __ZN3aci8Activity11detachChildEPS0_,
                            __ZN3aci8Activity12deinitializeEv,
                            __ZN3aci8Activity13classTypeInfoEv,
                            __ZN3aci8Activity6resumeEv,
                            __ZN3aci8Activity7suspendEv,
                            __ZN3aci8Provider10initializeEv,
                            __ZN3aci8Provider11stopServiceEPNS_6StringE,
                            __ZN3aci8Provider12deinitializeEv,
                            __ZN3aci8Provider12startServiceEPNS_6StringE,
                            __ZN3aci8Provider13classTypeInfoEv,
                            __ZN3aci8Provider13createServiceEPNS_6StreamE,
                            __ZN3aci8Provider14prepareServiceEPNS_6StringE,
                            __ZN3aci8Provider15activateServiceEPNS_6StringE,
                            __ZN3aci8Provider15allServicePropsEv,
                            __ZN3aci8Provider15releaseServicesEv,
                            __ZN3aci8Provider16discoverServicesEv,
                            __ZN3aci8Provider16unprepareServiceEPNS_6StringE,
                            __ZN3aci8Provider17deactivateServiceEPNS_6StringE,
                            __ZN3aci8ProviderC1EPNS_8StreamerE,
                            __ZN3aci8ProviderC2EPNS_8StreamerE,
                            __ZN3aci8Streamer10allStreamsEv,
                            __ZN3aci8Streamer13classTypeInfoEv,
                            __ZN3aci8Streamer9getStreamEPKNS_6ObjectE,
                            __ZN3aci8StreamerC1Ev, __ZN3aci8StreamerC2Ev,
                            __ZN3aci9Component11acquireDataEi,
                            __ZN3aci9Component12attachInPortEPNS_4PortEi,
                            __ZN3aci9Component12detachInPortEPNS_4PortEi,
                            __ZN3aci9Component13attachOutPortEPNS_4PortEi,
                            __ZN3aci9Component13classTypeInfoEv,
                            __ZN3aci9Component13detachOutPortEPNS_4PortEi,
                            __ZN3aci9Component5Ports10attachPortEPNS_4PortE,
                            __ZN3aci9Component5Ports10detachPortEPNS_4PortE,
                            __ZN3aci9Component5writeEPNS_4DataEi,
                            __ZN3aci9Component7processEPNS_4DataEi,
                            __ZN3aci9ComponentC1EPNS_10DictionaryE,
                            __ZN3aci9ComponentC2EPNS_10DictionaryE,
                            __ZNK3aci10Controller11castToClassEPKNS_8TypeInfoE,
                            __ZNK3aci10Controller9classNameEv,
                            __ZNK3aci10Dictionary11castToClassEPKNS_8TypeInfoE,
                            __ZNK3aci10Dictionary12objectForKeyEPKNS_6ObjectE,
                            __ZNK3aci10Dictionary12objectForKeyEPKc,
                            __ZNK3aci10Dictionary33enumerateKeysAndObjectsUsingBlockEU13block_pointerFbPNS_6ObjectES2_E,
                            __ZNK3aci10Dictionary9classNameEv,
                            __ZNK3aci10StreamSpec11castToClassEPKNS_8TypeInfoE,
                            __ZNK3aci10StreamSpec15sinkSpecAtIndexEy,
                            __ZNK3aci10StreamSpec17filterSpecAtIndexEy,
                            __ZNK3aci10StreamSpec17sourceSpecAtIndexEy,
                            __ZNK3aci10StreamSpec9classNameEv,
                            __ZNK3aci13ComponentSpec11castToClassEPKNS_8TypeInfoE,
                            __ZNK3aci13ComponentSpec11descriptionEv,
                            __ZNK3aci13ComponentSpec9classNameEv,
                            __ZNK3aci13SourceManager11castToClassEPKNS_8TypeInfoE,
                            __ZNK3aci13SourceManager9classNameEv,
                            __ZNK3aci14ComponentGraph11castToClassEPKNS_8TypeInfoE,
                            __ZNK3aci14ComponentGraph9classNameEv,
                            __ZNK3aci17SinkAgentProtocol11castToClassEPKNS_8TypeInfoE,
                            __ZNK3aci17SinkAgentProtocol9classNameEv,
                            __ZNK3aci22StreamListenerProtocol11castToClassEPKNS_8TypeInfoE,
                            __ZNK3aci22StreamListenerProtocol9classNameEv,
                            __ZNK3aci23ServiceReceiverProtocol11castToClassEPKNS_8TypeInfoE,
                            __ZNK3aci23ServiceReceiverProtocol9classNameEv,
                            __ZNK3aci3Env11castToClassEPKNS_8TypeInfoE,
                            __ZNK3aci3Env9classNameEv,
                            __ZNK3aci4Data11castToClassEPKNS_8TypeInfoE,
                            __ZNK3aci4Data15getDataRefCountEv,
                            __ZNK3aci4Data9classNameEv,
                            __ZNK3aci4Port11castToClassEPKNS_8TypeInfoE,
                            __ZNK3aci4Port9classNameEv,
                            __ZNK3aci4Sink11castToClassEPKNS_8TypeInfoE,
                            __ZNK3aci4Sink9classNameEv,
                            __ZNK3aci4Spec11castToClassEPKNS_8TypeInfoE,
                            __ZNK3aci4Spec9classNameEv,
                            __ZNK3aci5Array10lastObjectEv,
                            __ZNK3aci5Array11castToClassEPKNS_8TypeInfoE,
                            __ZNK3aci5Array13objectAtIndexEy,
                            __ZNK3aci5Array14containsObjectEPKNS_6ObjectE,
                            __ZNK3aci5Array26enumerateObjectsUsingBlockENSt3__18functionIFbPNS_6ObjectEjEEE,
                            __ZNK3aci5Array26enumerateObjectsUsingBlockEU13block_pointerFbPNS_6ObjectEjE,
                            __ZNK3aci5Array5countEv, __ZNK3aci5Array9classNameEv,
                            __ZNK3aci6Device11castToClassEPKNS_8TypeInfoE,
                            __ZNK3aci6Device9classNameEv,
                            __ZNK3aci6Number11castToClassEPKNS_8TypeInfoE,
                            __ZNK3aci6Number9classNameEv,
                            __ZNK3aci6Object11castToClassEPKNS_8TypeInfoE,
                            __ZNK3aci6Object11descriptionEv,
                            __ZNK3aci6Object11getRefCountEv,
                            __ZNK3aci6Object6retainEv,
                            __ZNK3aci6Object7isEqualEPKS0_,
                            __ZNK3aci6Object7releaseEv,
                            __ZNK3aci6Object9classNameEv,
                            __ZNK3aci6Stream11castToClassEPKNS_8TypeInfoE,
                            __ZNK3aci6Stream9classNameEv,
                            __ZNK3aci6String10getCStringEv,
                            __ZNK3aci6String11castToClassEPKNS_8TypeInfoE,
                            __ZNK3aci6String15isEqualToStringEPKS0_,
                            __ZNK3aci6String16isEqualToCStringEPKc,
                            __ZNK3aci6String7isEqualEPKNS_6ObjectE,
                            __ZNK3aci6String9classNameEv,
                            __ZNK3aci6String9getLengthEv,
                            __ZNK3aci7Factory11castToClassEPKNS_8TypeInfoE,
                            __ZNK3aci7Factory9classNameEv,
                            __ZNK3aci7Manager11castToClassEPKNS_8TypeInfoE,
                            __ZNK3aci7Manager9classNameEv,
                            __ZNK3aci7Service11castToClassEPKNS_8TypeInfoE,
                            __ZNK3aci7Service7getSpecEv,
                            __ZNK3aci7Service9classNameEv,
                            __ZNK3aci8Activity11castToClassEPKNS_8TypeInfoE,
                            __ZNK3aci8Activity9classNameEv,
                            __ZNK3aci8Provider10getServiceEy,
                            __ZNK3aci8Provider11castToClassEPKNS_8TypeInfoE,
                            __ZNK3aci8Provider12serviceCountEv,
                            __ZNK3aci8Provider13serviceForKeyEPNS_6StringE,
                            __ZNK3aci8Provider9classNameEv,
                            __ZNK3aci8Streamer11castToClassEPKNS_8TypeInfoE,
                            __ZNK3aci8Streamer9classNameEv,
                            __ZNK3aci9Component11castToClassEPKNS_8TypeInfoE,
                            __ZNK3aci9Component9classNameEv,
                            __ZTVN3aci10ControllerE, __ZTVN3aci10DictionaryE,
                            __ZTVN3aci10StreamSpecE, __ZTVN3aci13ComponentSpecE,
                            __ZTVN3aci13SourceManagerE,
                            __ZTVN3aci14ComponentGraphE,
                            __ZTVN3aci17SinkAgentProtocolE,
                            __ZTVN3aci22StreamListenerProtocolE,
                            __ZTVN3aci23ServiceReceiverProtocolE,
                            __ZTVN3aci3EnvE, __ZTVN3aci4DataE, __ZTVN3aci4PortE,
                            __ZTVN3aci4SinkE, __ZTVN3aci4SpecE, __ZTVN3aci5ArrayE,
                            __ZTVN3aci6DeviceE, __ZTVN3aci6NumberE,
                            __ZTVN3aci6ObjectE, __ZTVN3aci6StreamE,
                            __ZTVN3aci6StringE, __ZTVN3aci7FactoryE,
                            __ZTVN3aci7ManagerE, __ZTVN3aci7ServiceE,
                            __ZTVN3aci8ActivityE, __ZTVN3aci8ProviderE,
                            __ZTVN3aci8StreamerE, __ZTVN3aci9ComponentE,
                            __ZThn120_N3aci7Service9onNewDataEPNS_4DataEPNS_6StringE,
                            __ZThn120_NK3aci4Sink11castToClassEPKNS_8TypeInfoE,
                            __ZThn120_NK3aci4Sink9classNameEv,
                            __ZThn120_NK3aci7Service11castToClassEPKNS_8TypeInfoE,
                            __ZThn120_NK3aci7Service9classNameEv,
                            __ZThn120_NK3aci9Component11castToClassEPKNS_8TypeInfoE,
                            __ZThn120_NK3aci9Component9classNameEv,
                            __ZThn16_N3aci14ComponentGraph10deactivateEv,
                            __ZThn16_N3aci14ComponentGraph4stopEv,
                            __ZThn16_N3aci14ComponentGraph5startEv,
                            __ZThn16_N3aci14ComponentGraph7prepareEv,
                            __ZThn16_N3aci14ComponentGraph8activateEv,
                            __ZThn16_N3aci14ComponentGraph9unprepareEv,
                            __ZThn16_N3aci6Stream10deactivateEv,
                            __ZThn16_N3aci6Stream4stopEv,
                            __ZThn16_N3aci6Stream5startEv,
                            __ZThn16_N3aci6Stream7prepareEv,
                            __ZThn16_N3aci6Stream8activateEv,
                            __ZThn16_N3aci6Stream9unprepareEv,
                            __ZThn16_N3aci8Provider10initializeEv,
                            __ZThn16_N3aci8Provider12deinitializeEv,
                            __ZThn16_NK3aci14ComponentGraph11castToClassEPKNS_8TypeInfoE,
                            __ZThn16_NK3aci14ComponentGraph9classNameEv,
                            __ZThn16_NK3aci4Port11castToClassEPKNS_8TypeInfoE,
                            __ZThn16_NK3aci4Port9classNameEv,
                            __ZThn16_NK3aci4Sink11castToClassEPKNS_8TypeInfoE,
                            __ZThn16_NK3aci4Sink9classNameEv,
                            __ZThn16_NK3aci6Stream11castToClassEPKNS_8TypeInfoE,
                            __ZThn16_NK3aci6Stream9classNameEv,
                            __ZThn16_NK3aci7Manager11castToClassEPKNS_8TypeInfoE,
                            __ZThn16_NK3aci7Manager9classNameEv,
                            __ZThn16_NK3aci7Service11castToClassEPKNS_8TypeInfoE,
                            __ZThn16_NK3aci7Service9classNameEv,
                            __ZThn16_NK3aci8Provider11castToClassEPKNS_8TypeInfoE,
                            __ZThn16_NK3aci8Provider9classNameEv,
                            __ZThn16_NK3aci9Component11castToClassEPKNS_8TypeInfoE,
                            __ZThn16_NK3aci9Component9classNameEv,
                            __ZThn96_N3aci6Stream9onNewDataEPNS_4DataEPNS_6StringE,
                            __ZThn96_NK3aci6Stream11castToClassEPKNS_8TypeInfoE,
                            __ZThn96_NK3aci6Stream9classNameEv, __aciLogGeneral,
                            _aciLogCategoryGeneral, _aciLogSubsystem, _kHeight,
                            _kKey, _kPixelFormat, _kWidth ]
...
