--- !tapi-tbd-v3
archs:                 [ armv7, armv7s, arm64, arm64e ]
platform:              ios
flags:                 [ flat_namespace ]
install-name:          /System/Library/PrivateFrameworks/AppleMSG.framework/AppleMSG
current-version:       1
compatibility-version: 1
exports:
  - archs:                [ armv7, armv7s, arm64, arm64e ]
    symbols:              [ _AppleMSGVersionNumber, _AppleMSGVersionString,
                            _MSGAllocateEventTriggerHandle,
                            _MSGAllocateSyncHandle,
                            _MSGClearEventTriggerInterruptStatus,
                            _MSGConfigureBaseSync, _MSGConfigureDerivedSync,
                            _MSGCreate, _MSGEnableEventTriggerInterrupt,
                            _MSGEnableSyncInterrupt, _MSGGetCurrentSyncTiming,
                            _MSGGetEventTriggerConfig, _MSGGetEventTriggerCount,
                            _MSGGetEventTriggerInterruptEnable,
                            _MSGGetEventTriggerInterruptStatus,
                            _MSGGetEventTriggerTimings, _MSGGetFutureSyncTiming,
                            _MSGGetSyncConfig, _MSGGetSyncID, _MSGGetSyncRunState,
                            _MSGGetSystemState, _MSGInitBaseSync,
                            _MSGInitDerivedSync,
                            _MSGRegisterForEventTriggerTiming,
                            _MSGRegisterForSyncTiming,
                            _MSGReleaseEventTriggerHandle, _MSGReleaseSyncHandle,
                            _MSGResetSync, _MSGSetEventTriggerConfig,
                            _MSGStartSync, _MSGUnregisterFromEventTriggerTiming,
                            _MSGUnregisterFromSyncTiming, _MSGWatchdogCheckin,
                            _MSGWatchdogCreate,
                            _MSGWatchdogCreateWithDeadLineFrames,
                            _MSGWatchdogOpen, _MSGWatchdogRelease,
                            _MSGWatchdogSelectRelaxedDeadline,
                            _MSGWatchdogSelectStrictDeadline,
                            _MSGWatchdogUpdateDeadlines,
                            __Z23SyncComputeMSGPulseTimeN8AppleMSG16frame_duration_tENS_15msg_timer_sel_tENS_20sync_tracking_info_tEtPy,
                            __Z27SyncComputeNextMSGPulseTimeN8AppleMSG16frame_duration_tENS_15msg_timer_sel_tEyyyPyS2_,
                            __ZN13MSGController10getEDTDataEN8AppleMSG17msg_get_edt_inputERNS0_18msg_get_edt_outputE,
                            __ZN13MSGController11ReadMetricsER18msg_perf_metrics_t,
                            __ZN13MSGController11TestLoggingEv,
                            __ZN13MSGController11isRemoteMSGEv,
                            __ZN13MSGController11openServiceEb,
                            __ZN13MSGController11openServiceEbP16dispatch_queue_sy,
                            __ZN13MSGController11sendCommandEjPhmS0_m,
                            __ZN13MSGController12closeServiceEv,
                            __ZN13MSGController13ReleaseHandleEv,
                            __ZN13MSGController13SlaveSyncInitEjjN8AppleMSG13msg_trigger_tE,
                            __ZN13MSGController13SyncGetConfigEjRN8AppleMSG13sync_config_tEa,
                            __ZN13MSGController13SyncGetStatusEjRb,
                            __ZN13MSGController14AllocateHandleEv,
                            __ZN13MSGController14MasterSyncInitEjN8AppleMSG13msg_trigger_tE,
                            __ZN13MSGController14SetEnqueueModeEb,
                            __ZN13MSGController14getNextNFramesEhhyPyRy,
                            __ZN13MSGController15MSGGetFIFODepthERh,
                            __ZN13MSGController15SlaveSyncConfigEjN8AppleMSG19sync_slave_config_tE,
                            __ZN13MSGController15SlaveSyncConfigEjN8AppleMSG19sync_slave_config_tEt,
                            __ZN13MSGController15SyncGetTrackingEjRN8AppleMSG20sync_tracking_info_tE,
                            __ZN13MSGController16IsMSGSystemReadyERb,
                            __ZN13MSGController16IsMSGSystemReadyERby,
                            __ZN13MSGController16MasterSyncConfigEjN8AppleMSG20sync_master_config_tE,
                            __ZN13MSGController16MasterSyncConfigEjN8AppleMSG20sync_master_config_tENS0_10gtb_time_tE,
                            __ZN13MSGController16MeasureLinkDelayERN8AppleMSG12link_delay_tE,
                            __ZN13MSGController16ReadSyncEventLogEjR15SyncGenEventLog,
                            __ZN13MSGController16SyncGetFIFOStateEjRbRh,
                            __ZN13MSGController17MSGGetVersionInfoEPc,
                            __ZN13MSGController17SyncGetHardwareIDEjRj,
                            __ZN13MSGController17SyncGetInitConfigEjRN8AppleMSG13sync_config_tE,
                            __ZN13MSGController17SyncGetSoftwareIDEjRj,
                            __ZN13MSGController17timelockBaseSyncsEN8AppleMSG13msg_sync_id_tES1_RyS2_S2_,
                            __ZN13MSGController18GetMSGPlatformInfoERN8AppleMSG19msg_platform_info_tE,
                            __ZN13MSGController19DispatchConfigQueueEv,
                            __ZN13MSGController19SyncGetActiveConfigEjRN8AppleMSG13sync_config_tE,
                            __ZN13MSGController19SyncInterruptEnableEjbb,
                            __ZN13MSGController19getFrametrackBufferERN8AppleMSG19frametrack_buffer_tE,
                            __ZN13MSGController20SyncComputePulseTimeEN8AppleMSG16frame_duration_tENS0_15msg_timer_sel_tENS0_20sync_tracking_info_tEtRy,
                            __ZN13MSGController20_openServiceInternalEPKcP16dispatch_queue_syRjS4_,
                            __ZN13MSGController21GetEventTriggerConfigEjRN8AppleMSG19event_trigger_cfg_tE,
                            __ZN13MSGController21SetEventTriggerConfigEjN8AppleMSG19event_trigger_cfg_tE,
                            __ZN13MSGController21SyncGetConfigSequenceEjRN8AppleMSG22sync_config_sequence_tE,
                            __ZN13MSGController21SyncSetConfigSequenceEjRKN8AppleMSG22sync_config_sequence_tE,
                            __ZN13MSGController21getCurrentMasterFrameERyS0_S0_,
                            __ZN13MSGController21registerForTimingInfoEjyRh,
                            __ZN13MSGController21registerForTimingInfoEjyRhb,
                            __ZN13MSGController22SyncStopSlaveScheduledEjt,
                            __ZN13MSGController22_initMSGManagerObjectsEv,
                            __ZN13MSGController22getEventTriggerInRangeEhyyRN8AppleMSG24msg_event_trigger_timingE,
                            __ZN13MSGController22serviceMatchedCallbackEPvj,
                            __ZN13MSGController22setTargetSyncAlignmentEjN8AppleMSG15gtb_full_time_tENS0_10gtb_time_tE,
                            __ZN13MSGController23GetCrossTimestampConfigERN8AppleMSG21cross_timestamp_cfg_tE,
                            __ZN13MSGController23SetCrossTimestampConfigEN8AppleMSG21cross_timestamp_cfg_tE,
                            __ZN13MSGController23SetTrackedTimeImmediateEhN8AppleMSG10ptp_time_tENS0_15ptp_increment_tE,
                            __ZN13MSGController23SetTrackedTimeScheduledEhN8AppleMSG10ptp_time_tENS0_15ptp_increment_tENS0_10gtb_time_tE,
                            __ZN13MSGController23SyncStartSlaveScheduledEjta,
                            __ZN13MSGController23SyncStopMasterScheduledEjN8AppleMSG10gtb_time_tE,
                            __ZN13MSGController23dumpCurrentSyncGenStateEv,
                            __ZN13MSGController23unregisterForTimingInfoEh,
                            __ZN13MSGController24SyncComputeNextPulseTimeEN8AppleMSG16frame_duration_tENS0_15msg_timer_sel_tEyyyRyS3_,
                            __ZN13MSGController24SyncStartMasterScheduledEjN8AppleMSG10gtb_time_tEa,
                            __ZN13MSGController24getMasterFrameWithOffsetERyS0_S0_yyy,
                            __ZN13MSGController25SyncGetCurrentMasterFrameEjRyS0_S0_,
                            __ZN13MSGController25getEarliestPhaseRampStartEjRN8AppleMSG10gtb_time_tE,
                            __ZN13MSGController25initSyncGenPhaseAlignmentEjPKc,
                            __ZN13MSGController25setMinimumPhaseDifferenceEy,
                            __ZN13MSGController26GetCrossTimestampImmediateERN8AppleMSG10gtb_time_tEPNS0_10ptp_time_tES4_S4_,
                            __ZN13MSGController26GetCurrentDisplayFramerateERd,
                            __ZN13MSGController26SyncPulseSubscribeToEventsEjRj,
                            __ZN13MSGController26pauseSyncGenPhaseAlignmentEj,
                            __ZN13MSGController27EventTriggerInterruptEnableEjb,
                            __ZN13MSGController27SyncGetConfigSequenceActiveEjRN8AppleMSG22sync_config_sequence_tE,
                            __ZN13MSGController27_getFirstPulseTimeFromEntryEPKN8AppleMSG16rt_vsync_entry_tERy,
                            __ZN13MSGController27deinitSyncGenPhaseAlignmentEj,
                            __ZN13MSGController27dumpMostRecentEventTriggersEhRmPN8AppleMSG24msg_event_trigger_timingE,
                            __ZN13MSGController27getNextNFramesWithVirtualIDEhhyPyRyhS0_,
                            __ZN13MSGController27registerForEventTriggerInfoEjRh,
                            __ZN13MSGController28GetEventTriggerCountSnapshotEjRN8AppleMSG21event_trigger_count_tE,
                            __ZN13MSGController28unpauseSyncGenPhaseAlignmentEj,
                            __ZN13MSGController29registerForVirtualFrameIDInfoEjRh,
                            __ZN13MSGController29unregisterForEventTriggerInfoEh,
                            __ZN13MSGController30GetEventTriggerInterruptEnableERN8AppleMSG27event_trigger_intr_enable_tE,
                            __ZN13MSGController30GetEventTriggerInterruptStatusERN8AppleMSG24event_trigger_intr_sts_tE,
                            __ZN13MSGController30SyncPulseUnsubscribeFromEventsEjRj,
                            __ZN13MSGController30SyncSetConfigSequenceScheduledEjRKN8AppleMSG22sync_config_sequence_tEt,
                            __ZN13MSGController31unregisterForVirtualFrameIDInfoEh,
                            __ZN13MSGController32EventTriggerClearInterruptStatusEj,
                            __ZN13MSGController33SyncGetDurationInMachAbsoluteTimeEjRN8AppleMSG10gtb_time_tEa,
                            __ZN13MSGController33setTargetSyncAlignmentAndVelocityEjN8AppleMSG15gtb_full_time_tENS0_10gtb_time_tES2_S2_,
                            __ZN13MSGController34SyncGetCurrentPulseRateCalibrationEjR28msg_pulse_rate_calibration_t,
                            __ZN13MSGController35GetSlaveSchedulingMarginForMasterIDEjRt,
                            __ZN13MSGController37SyncGetTrackingInfoInMachAbsoluteTimeEjRN8AppleMSG10gtb_time_tERy,
                            __ZN13MSGController42SyncRegisterForPulseRateCalibrationUpdatesEjRj,
                            __ZN13MSGController44SyncUnregisterForPulseRateCalibrationUpdatesEjRj,
                            __ZN13MSGController8GetStateERh,
                            __ZN13MSGController8SyncStopEj,
                            __ZN13MSGController9SyncResetEj,
                            __ZN13MSGController9SyncStartEj,
                            __ZN13MSGControllerC1EOS_, __ZN13MSGControllerC1Ebb,
                            __ZN13MSGControllerC2EOS_, __ZN13MSGControllerC2Ebb,
                            __ZN13MSGControllerD1Ev, __ZN13MSGControllerD2Ev,
                            __ZN14AppleMSGClient11packCommandEjPvmPh,
                            __ZN14AppleMSGClient13syncGetConfigEN8AppleMSG13msg_sync_id_tERNS0_13sync_config_tENS0_17msg_config_type_eEa,
                            __ZN14AppleMSGClient13syncSetConfigEN8AppleMSG13msg_sync_id_tENS0_21sync_config_request_tE,
                            __ZN14AppleMSGClient14syncInitializeEN8AppleMSG13msg_sync_id_tEbNS0_13msg_trigger_tES1_,
                            __ZN14AppleMSGClient15msgBlockIsReadyERby,
                            __ZN14AppleMSGClient15syncGetRunStateEN8AppleMSG13msg_sync_id_tERbRNS0_20sync_tracking_info_tE,
                            __ZN14AppleMSGClient16syncReadEventLogEN8AppleMSG13msg_sync_id_tER15SyncGenEventLog,
                            __ZN14AppleMSGClient18syncSetConfigBatchEPN8AppleMSG20batch_config_entry_tEj,
                            __ZN14AppleMSGClient19timerSetTrackedTimeEjN8AppleMSG10ptp_time_tENS0_15ptp_increment_tEbNS0_10msg_time_tE,
                            __ZN14AppleMSGClient20frametrackGetBuffersEjPKN8AppleMSG13msg_sync_id_tEPNS0_19frametrack_buffer_tE,
                            __ZN14AppleMSGClient20msgBlockPlatformInfoERN8AppleMSG19msg_platform_info_tE,
                            __ZN14AppleMSGClient21msgBlockTargetVersionEPc,
                            __ZN14AppleMSGClient21syncGetConfigSequenceEN8AppleMSG13msg_sync_id_tERNS0_22sync_config_sequence_tE,
                            __ZN14AppleMSGClient21syncGetInterruptStateEN8AppleMSG13msg_sync_id_tERbS2_,
                            __ZN14AppleMSGClient21syncSetConfigSequenceEN8AppleMSG13msg_sync_id_tENS0_22sync_config_sequence_tEby,
                            __ZN14AppleMSGClient21syncSetInterruptStateEN8AppleMSG13msg_sync_id_tEbb,
                            __ZN14AppleMSGClient22timerGetCrossTimestampERN8AppleMSG10gtb_time_tERNS0_10ptp_time_tES4_S4_,
                            __ZN14AppleMSGClient28timerGetCrossTimestampConfigERN8AppleMSG21cross_timestamp_cfg_tE,
                            __ZN14AppleMSGClient28timerSetCrossTimestampConfigEN8AppleMSG21cross_timestamp_cfg_tE,
                            __ZN14AppleMSGClient8syncStopEN8AppleMSG13msg_sync_id_tEbNS0_22msg_schedule_request_tE,
                            __ZN14AppleMSGClient9syncResetEN8AppleMSG13msg_sync_id_tE,
                            __ZN14AppleMSGClient9syncStartEN8AppleMSG13msg_sync_id_tEbNS0_22msg_schedule_request_tE,
                            __ZN15MSGSyncTargeterC1Eyy,
                            __ZN15MSGSyncTargeterC2Eyy,
                            __ZN18RingBufferW1Reader12jumpToLatestEb,
                            __ZN18RingBufferW1Reader15dumpStateToLogsEv,
                            __ZN18RingBufferW1Reader20readAndAdvanceOffsetEPtPht,
                            __ZN18RingBufferW1Reader22read64AndAdvanceOffsetEPtPy,
                            __ZN18RingBufferW1Reader4initEPhj,
                            __ZN18RingBufferW1Reader8readNextEPhPt,
                            __ZN18RingBufferW1Writer13invalidateAllEv,
                            __ZN18RingBufferW1Writer21writeAndAdvanceOffsetEPht,
                            __ZN18RingBufferW1Writer23write64AndAdvanceOffsetE19RingEntryDescriptor,
                            __ZN18RingBufferW1Writer4initEPhjt,
                            __ZN18RingBufferW1Writer5writeEPht,
                            __ZN22MSGPenroseSyncTargeter33getTargetAlignmentFromPenroseDataEdyyRN8AppleMSG15gtb_full_time_tERNS0_10gtb_time_tE,
                            __ZN22MSGPenroseSyncTargeterC1Eyy,
                            __ZN22MSGPenroseSyncTargeterC2Eyy,
                            __ZN23MSGExternalSyncTargeter18getTargetAlignmentERN8AppleMSG15gtb_full_time_tERNS0_10gtb_time_tE,
                            __ZN23MSGExternalSyncTargeter31getTargetAlignmentFromRawTimingEPKN8AppleMSG24msg_event_trigger_timingEmRNS0_15gtb_full_time_tERNS0_10gtb_time_tERl,
                            __ZN23MSGExternalSyncTargeterC1EP13MSGControllerjyyN8AppleMSG10gtb_time_tE,
                            __ZN23MSGExternalSyncTargeterC2EP13MSGControllerjyyN8AppleMSG10gtb_time_tE,
                            __ZN8AppleMSG12getGTBScaledEy18gtb_scale_factor_t,
                            __ZN8AppleMSG14MSGTimerToCStrENS_15msg_timer_sel_tE,
                            __ZN8AppleMSG16MSGTimerFromCStrEPKc,
                            __ZN8AppleMSG16MSGTriggerToCStrENS_13msg_trigger_tE,
                            __ZN8AppleMSG17getPerfReportBootEPKcP18msg_perf_metrics_t18gtb_scale_factor_t,
                            __ZN8AppleMSG18MSGTriggerFromCStrEPKc,
                            __ZN8AppleMSG19getPerfReportResumeEPKcP18msg_perf_metrics_t18gtb_scale_factor_t,
                            __ZN8AppleMSG20GTBScaleFactorToCStrE18gtb_scale_factor_t,
                            __ZN8AppleMSG22getScaleFactorFromCStrEPKc,
                            __ZN8AppleMSG24getEventTriggerCountValsEjPNS_21event_trigger_count_tE,
                            __ZN8AppleMSG24getSyncConfigDescriptionEPNS_13sync_config_tE,
                            __ZN8AppleMSG26getEventTriggerDescriptionEjPNS_19event_trigger_cfg_tE,
                            __ZN8AppleMSG27getSyncConfigEDTDescriptionEPNS_13sync_config_tE,
                            __ZTI13MSGController, __ZTI14AppleMSGClient,
                            __ZTS13MSGController, __ZTS14AppleMSGClient,
                            __ZTV13MSGController, __ZTV14AppleMSGClient,
                            _controllerMutex, _kMSGEDTKeyLocalSyncs,
                            _kMSGEDTKeyRemoteSyncs, _localController,
                            _remoteController ]
...
